(lp0
ccopy_reg
_reconstructor
p1
(cdeap.creator
ScoreTeam
p2
c__builtin__
object
p3
Ntp4
Rp5
(dp6
S'offense'
p7
(lp8
F-0.6163667746412206
aF0.1690598954212653
aF-0.2763953948360629
aF0.2683835054325753
aF0.8518314913902156
aF0.29754628685541284
aF-0.1759252482279422
aF0.4626464084706648
aF1.0267092129232935
aF-0.6273263147531033
aF-0.13398542306735722
aF2.9005575042483125
aF-1.2002531297943484
aF-1.2421984024284098
asS'defense'
p9
(lp10
F-0.013228131660706133
aF0.9364319173535074
aF0.6722919810884999
aF0.6441977754697144
aF0.6091242477083589
aF0.538556211906865
aF0.3271844777512629
aF-0.9507174815055944
aF0.4336541295278882
aF-0.546238409216524
aF-0.3330084393278673
aF-0.7532557872369875
aF-0.832825025652755
aF-0.23869700739502325
asS'fitness'
p11
g1
(cdeap.creator
ScoreMax
p12
g3
Ntp13
Rp14
(dp15
S'wvalues'
p16
(F1.0
F0.0
F0.0
tp17
sbsbag1
(g2
g3
Ntp18
Rp19
(dp20
g7
(lp21
F-0.6163667746412206
aF0.1690598954212653
aF-0.2763953948360629
aF-0.006146832699006399
aF0.8518314913902157
aF-0.38037964453973894
aF-0.1759252482279422
aF0.4626464084706648
aF0.9436016435982174
aF0.10037840304016443
aF-0.13398542306735722
aF2.543237978989214
aF-1.2002531297943484
aF-1.2421984024284098
asg9
(lp22
F-0.013228131660706133
aF0.9364319173535074
aF0.6722919810884999
aF0.6441977754697144
aF0.4987133747002478
aF0.538556211906865
aF0.3271844777512629
aF-0.8477054747234332
aF0.4336541295278882
aF0.5401992370184008
aF-0.3330084393278673
aF-0.7532557872369875
aF-0.832825025652755
aF-1.5872333523967728
asg11
g1
(g12
g3
Ntp23
Rp24
(dp25
g16
(F1.0
F0.0
F0.0
tp26
sbsbag1
(g2
g3
Ntp27
Rp28
(dp29
g7
(lp30
F-0.03849145783576477
aF2.012383662945008
aF0.3329717045470728
aF-0.08790838304186017
aF0.166446855647589
aF-0.15942603935476896
aF-0.6201045170756321
aF0.8254690070548194
aF0.042733598310237854
aF-0.5161266600182162
aF-0.009021217189950026
aF-0.8546488435403361
aF1.2857547151602806
aF-0.019218343885460287
asg9
(lp31
F0.9028196032283677
aF0.9871080276356146
aF0.6176498744300172
aF0.6293015765579217
aF1.9437017990474974
aF0.34253897444510534
aF0.33279097552061776
aF0.4478922972700803
aF-0.17630590386980607
aF0.7875746055392845
aF0.4340375147616029
aF-0.5204801319982655
aF0.09778560912210355
aF-0.8370123073298517
asg11
g1
(g12
g3
Ntp32
Rp33
(dp34
g16
(F2.0
F0.0
F0.0
tp35
sbsbag1
(g2
g3
Ntp36
Rp37
(dp38
g7
(lp39
F-0.03849145783576477
aF2.012383662945008
aF0.3329717045470728
aF-0.08790838304186017
aF0.166446855647589
aF-0.15942603935476896
aF-0.6201045170756321
aF0.8254690070548194
aF0.042733598310237854
aF-0.5161266600182162
aF-0.009021217189950026
aF-0.8546488435403361
aF1.2857547151602806
aF-0.019218343885460287
asg9
(lp40
F0.9028196032283677
aF0.9871080276356146
aF0.6176498744300172
aF0.6293015765579217
aF1.9437017990474974
aF0.34253897444510534
aF0.33279097552061776
aF0.4478922972700803
aF-0.17630590386980607
aF0.7875746055392845
aF0.4340375147616029
aF-0.5204801319982655
aF0.09778560912210355
aF-0.8370123073298517
asg11
g1
(g12
g3
Ntp41
Rp42
(dp43
g16
g35
sbsbag1
(g2
g3
Ntp44
Rp45
(dp46
g7
(lp47
F-0.0002477895616588288
aF0.29251323806125107
aF0.3608219751384403
aF0.9267855867360782
aF0.5176847212200193
aF-0.20269302531312022
aF0.7974347985738102
aF0.7636025679494345
aF0.660356268518167
aF-0.029127910326488093
aF-0.16948084918895434
aF-0.6682931420593968
aF-1.0462440651822376
aF-0.5308475027586679
asg9
(lp48
F-0.5051698661693155
aF0.9043341643135537
aF-0.3073092011288333
aF-0.006959443307723634
aF0.73984216235684
aF0.186731710381496
aF0.8339814627402403
aF0.5176307851017465
aF0.2417108901715963
aF0.15490502050713337
aF-0.46255387960715344
aF-0.5600610330797485
aF-0.056920333587121674
aF-0.10194939578832296
asg11
g1
(g12
g3
Ntp49
Rp50
(dp51
g16
(F5.0
F0.0
F0.0
tp52
sbsbag1
(g2
g3
Ntp53
Rp54
(dp55
g7
(lp56
F-0.0002477895616588288
aF0.29251323806125107
aF0.24760416795349852
aF0.5099368704016062
aF0.8052968068094983
aF-0.8266209309622017
aF1.69640252008495
aF0.3174816172187525
aF0.660356268518167
aF0.16491541887903888
aF0.7287178677802627
aF-0.8108286778581804
aF-1.0462440651822376
aF-0.5493608752070263
asg9
(lp57
F-0.5051698661693155
aF0.9043341643135536
aF-0.5939501903626722
aF-0.006959443307723634
aF0.4478799801452079
aF0.186731710381496
aF0.8339814627402403
aF0.5176307851017465
aF0.050040940723456134
aF0.1549050205071334
aF-0.4625538796071534
aF-0.5600610330797485
aF-0.056920333587121674
aF-0.10194939578832296
asg11
g1
(g12
g3
Ntp58
Rp59
(dp60
g16
(F3.0
F0.0
F0.0
tp61
sbsbag1
(g2
g3
Ntp62
Rp63
(dp64
g7
(lp65
F-0.10951918493200716
aF-0.35254211068945873
aF0.027076100302155848
aF-0.22132639457825787
aF-0.15601198429904756
aF0.5113476414226722
aF-0.7795253239979627
aF-0.24539837299385325
aF2.101067553579366
aF-2.601489255693046
aF-0.4003027718935103
aF-0.6709128895154872
aF-0.9454687459490108
aF-0.760505134771071
asg9
(lp66
F-1.10893359067755
aF-0.04670137703530747
aF0.18537191662092467
aF0.9785612296220306
aF0.8670298570086554
aF0.6162899938669302
aF0.4766908780005333
aF-0.11580184361109795
aF-0.21601440512923803
aF0.032643089805389276
aF0.7210273020916736
aF-0.633930267812182
aF-2.1176066634314115
aF-0.9396854485514459
asg11
g1
(g12
g3
Ntp67
Rp68
(dp69
g16
(F3.0
F0.0
F0.0
tp70
sbsbag1
(g2
g3
Ntp71
Rp72
(dp73
g7
(lp74
F-1.6015326009281083
aF0.32538861368966954
aF-0.47434007986894544
aF-0.23317504935209943
aF1.4249755256215872
aF-0.05660538461817066
aF0.08984240063051215
aF-0.09659614680045206
aF0.8447265879069948
aF0.8123988376879359
aF-0.47440372951967524
aF-0.23321411048007487
aF-1.0939069768163698
aF-0.7321557469425508
asg9
(lp75
F0.017790964873475312
aF0.4764033222988401
aF-0.2236016827368798
aF0.9038310642046776
aF0.820310650621863
aF0.7380593026028717
aF-0.16879165470142762
aF-0.39177257958622014
aF0.7218447636704414
aF-0.2752044781296594
aF-0.4204963565424393
aF-0.6141724596907618
aF-0.7761145199574275
aF-0.04595475198863755
asg11
g1
(g12
g3
Ntp76
Rp77
(dp78
g16
(F2.0
F0.0
F0.0
tp79
sbsbag1
(g2
g3
Ntp80
Rp81
(dp82
g7
(lp83
F0.10762721049995522
aF0.5745492455000358
aF-1.0089111811730032
aF1.2658827358433196
aF-0.31919049094968666
aF-0.19415785268474325
aF0.7533854040407394
aF0.7921242074885654
aF0.863267798099909
aF-0.8596708140769994
aF-0.5752104260771304
aF0.23644559726629755
aF0.16703188406501723
aF-1.4534104546490147
asg9
(lp84
F-0.6104380283293118
aF-0.002734969084406763
aF-0.12520294110308736
aF0.1273544185761305
aF1.1045527620760702
aF1.284208873516296
aF1.288600606550202
aF-0.08249372505908037
aF0.7383106454009181
aF-0.6585661165067039
aF0.3886187366949075
aF-0.45476357986155574
aF-0.13910461549736958
aF-0.8063569918329321
asg11
g1
(g12
g3
Ntp85
Rp86
(dp87
g16
(F10.0
F0.0
F0.0
tp88
sbsbag1
(g2
g3
Ntp89
Rp90
(dp91
g7
(lp92
F0.10762721049995522
aF0.5745492455000358
aF-1.0089111811730032
aF1.2658827358433196
aF-0.31919049094968666
aF-0.19415785268474325
aF0.7533854040407394
aF0.7921242074885654
aF0.863267798099909
aF-0.8596708140769994
aF-0.5752104260771304
aF0.23644559726629755
aF0.16703188406501723
aF-1.4534104546490147
asg9
(lp93
F-0.6104380283293118
aF-0.002734969084406763
aF-0.12520294110308736
aF0.1273544185761305
aF1.1045527620760702
aF1.284208873516296
aF1.288600606550202
aF-0.08249372505908037
aF0.7383106454009181
aF-0.6585661165067039
aF0.3886187366949075
aF-0.45476357986155574
aF-0.13910461549736958
aF-0.8063569918329321
asg11
g1
(g12
g3
Ntp94
Rp95
(dp96
g16
g88
sbsbag1
(g2
g3
Ntp97
Rp98
(dp99
g7
(lp100
F-0.9679570618337484
aF-0.3312743790058131
aF0.00040809257874943605
aF0.33021483920752415
aF-0.7686072924348578
aF-0.4759095269935396
aF1.0814900488059487
aF1.333536589498275
aF1.5389621358532601
aF-0.6061575073695666
aF-0.77880736938802
aF-0.07922090867426519
aF-1.2422044600935016
aF-0.6180243289607175
asg9
(lp101
F0.10699931800566406
aF1.5505265064824671
aF0.2698416269907673
aF1.5144471328607363
aF0.5647723470909191
aF-0.22508429375529115
aF0.2009876063171967
aF0.32435575819258444
aF-1.8431989979936383
aF-0.46801059128693423
aF-0.46349061501589456
aF-1.9372890609293634
aF-1.0301200743257306
aF-0.858112525647214
asg11
g1
(g12
g3
Ntp102
Rp103
(dp104
g16
(F2.0
F0.0
F0.0
tp105
sbsbag1
(g2
g3
Ntp106
Rp107
(dp108
g7
(lp109
F-0.8104793655193983
aF-0.3312743790058131
aF0.0004080925787494361
aF1.1115390870779525
aF-0.7686072924348577
aF-0.09683195729350491
aF1.0814900488059487
aF1.333536589498275
aF1.5389621358532601
aF-0.48514478084925877
aF-0.77880736938802
aF0.022174510493552648
aF-1.2678256683034483
aF-0.6180243289607175
asg9
(lp110
F0.10699931800566406
aF1.5505265064824671
aF0.21694912081008255
aF1.6564657855258615
aF0.5647723470909192
aF-0.22508429375529115
aF0.4168675167448594
aF0.32435575819258444
aF-1.8431989979936383
aF-0.46801059128693423
aF-0.46349061501589456
aF-1.9372890609293636
aF-1.0301200743257306
aF-0.858112525647214
asg11
g1
(g12
g3
Ntp111
Rp112
(dp113
g16
(F2.0
F0.0
F0.0
tp114
sbsbag1
(g2
g3
Ntp115
Rp116
(dp117
g7
(lp118
F-0.5005273230101216
aF0.24282167050981465
aF-0.13933372102950994
aF0.7598657102946279
aF-0.6227130454583565
aF-0.8823170395784813
aF-0.320323095955237
aF0.3464669879055597
aF0.4417678438856946
aF-0.18080349433396398
aF0.2456106632140868
aF0.7876838667586383
aF0.06748936946342525
aF0.8808340800335658
asg9
(lp119
F-0.3152046494891432
aF-0.22080198733108675
aF-0.5112554309669355
aF-0.8474415593190666
aF0.31344301525082174
aF0.328964049072284
aF0.17097241611847244
aF-0.8225099246641898
aF0.7847456341246104
aF-1.0956499920331368
aF-0.2880540716235546
aF0.5677583798106619
aF0.16718575294805793
aF-0.7680055706124003
asg11
g1
(g12
g3
Ntp120
Rp121
(dp122
g16
(F2.0
F0.0
F0.0
tp123
sbsbag1
(g2
g3
Ntp124
Rp125
(dp126
g7
(lp127
F-0.5005273230101216
aF0.24282167050981465
aF-0.13933372102950994
aF0.7598657102946279
aF-0.6227130454583565
aF-0.8823170395784813
aF-0.320323095955237
aF0.3464669879055597
aF0.4417678438856946
aF-0.18080349433396398
aF0.2456106632140868
aF0.7876838667586383
aF0.06748936946342525
aF0.8808340800335658
asg9
(lp128
F-0.3152046494891432
aF-0.22080198733108675
aF-0.5112554309669355
aF-0.8474415593190666
aF0.31344301525082174
aF0.328964049072284
aF0.17097241611847244
aF-0.8225099246641898
aF0.7847456341246104
aF-1.0956499920331368
aF-0.2880540716235546
aF0.5677583798106619
aF0.16718575294805793
aF-0.7680055706124003
asg11
g1
(g12
g3
Ntp129
Rp130
(dp131
g16
g123
sbsbag1
(g2
g3
Ntp132
Rp133
(dp134
g7
(lp135
F-0.7083032280854789
aF0.3079892926285604
aF1.230646059526538
aF0.9760059544848478
aF-2.492587821666245
aF2.1670916254394363
aF-0.017610380410227444
aF-1.3279677026382035
aF1.0185821295071196
aF-1.4240631641969725
aF0.30948800202194354
aF0.6325278045079762
aF0.4654705690510589
aF-0.5066538635034193
asg9
(lp136
F-0.5062869180628673
aF0.316265275535059
aF0.5289013931442994
aF1.0527967577086252
aF-0.4075350208419938
aF-1.311028328480892
aF-0.15471014032068447
aF0.18739742022231176
aF0.5392621392598563
aF-1.7433063908307305
aF0.9387705684006322
aF3.56989747970091
aF0.9902562412898597
aF-1.1004013887911825
asg11
g1
(g12
g3
Ntp137
Rp138
(dp139
g16
(F3.0
F0.0
F0.0
tp140
sbsbag1
(g2
g3
Ntp141
Rp142
(dp143
g7
(lp144
F-0.02718174456382072
aF-1.2109371519869447
aF1.1026858763550076
aF0.16625511255183995
aF-0.9590457058791759
aF-0.3171539438220523
aF-1.4570329531131232
aF-0.00048178765853011327
aF0.7460523056910737
aF0.21066767988167795
aF-0.8814432340406031
aF-0.08393988577002644
aF0.3194027685314414
aF-0.35397375276205284
asg9
(lp145
F0.1738709739801247
aF1.0110987460712262
aF-0.04508853553917545
aF0.4392022374735792
aF-0.08744856115831373
aF-0.7087575455594164
aF-0.04096711638563687
aF1.0888093026379035
aF0.7507529436264869
aF0.8645073428947992
aF0.684405390099716
aF1.3255358998639877
aF0.24411562060900552
aF0.7200043425350231
asg11
g1
(g12
g3
Ntp146
Rp147
(dp148
g16
(F-1.0
F0.0
F0.0
tp149
sbsbag1
(g2
g3
Ntp150
Rp151
(dp152
g7
(lp153
F0.017576816625534578
aF0.011354058833838443
aF-0.0011065192575554494
aF0.24622804263634807
aF0.8531796976315957
aF-0.0359265388337898
aF0.45445017268537985
aF1.3207227473392202
aF-0.4452379421997679
aF-0.7756701291366089
aF1.5264227317414258
aF-0.05638947552824877
aF-0.822346155727489
aF-1.2921773123645146
asg9
(lp154
F0.30090541001540866
aF-0.2764355603659417
aF-2.035061362585868
aF1.021242417111978
aF0.6474561202811888
aF0.7194452211744311
aF0.6177495731308291
aF0.6806354710286727
aF0.6588150430352995
aF0.43227953323566665
aF-0.9890587117013281
aF-2.141945333332475
aF-1.9542043737503965
aF-0.23567811268328592
asg11
g1
(g12
g3
Ntp155
Rp156
(dp157
g16
(F10.0
F0.0
F0.0
tp158
sbsbag1
(g2
g3
Ntp159
Rp160
(dp161
g7
(lp162
F-0.10845566097484574
aF-0.21360411161910683
aF0.8158741062755861
aF0.3232407012832114
aF0.37110222692720857
aF0.470551025116812
aF0.8416230189349916
aF-0.6218479048797498
aF1.001653502862879
aF-0.7696668061752874
aF0.8010853466480894
aF-0.05638947552824877
aF-0.4712042252939128
aF1.167964441986783
asg9
(lp163
F0.30090541001540866
aF-0.5067743513055655
aF-0.6123281739938015
aF0.8533262622058354
aF0.6474561202811888
aF0.7377470306986812
aF2.3822448652288117
aF2.9344273464499993
aF0.7849000690095908
aF-0.026815283290376576
aF-1.4413030115452252
aF-1.1131571114107726
aF-0.7735436365436966
aF-0.6425485890305197
asg11
g1
(g12
g3
Ntp164
Rp165
(dp166
g16
(F10.0
F0.0
F0.0
tp167
sbsbag1
(g2
g3
Ntp168
Rp169
(dp170
g7
(lp171
F-0.007707472910701396
aF-0.7848550454849038
aF0.5929830180582044
aF0.8126869527748637
aF0.5714628717046866
aF-0.9984701172005475
aF0.22650666415832726
aF1.0419058902282448
aF0.3309753956099033
aF-0.949350138630489
aF-0.327433774857175
aF-1.4015570890450402
aF-0.17368829595690966
aF-1.23859094109182
asg9
(lp172
F0.10287862881413634
aF-0.26399074317236254
aF0.16976916550547516
aF0.3082052801773382
aF0.7183478066954838
aF0.3059360373212694
aF0.717114086581641
aF0.8964774716749058
aF0.7698342787441457
aF-0.7820810355758878
aF-0.7865809150375247
aF0.09706035976320794
aF0.2751522361132222
aF-0.5277116944427046
asg11
g1
(g12
g3
Ntp173
Rp174
(dp175
g16
(F9.0
F0.0
F0.0
tp176
sbsbag1
(g2
g3
Ntp177
Rp178
(dp179
g7
(lp180
F-0.007707472910701396
aF-0.7848550454849038
aF0.5929830180582044
aF0.8126869527748637
aF0.5714628717046866
aF-0.9984701172005475
aF0.22650666415832726
aF1.0419058902282448
aF0.3309753956099033
aF-0.949350138630489
aF-0.327433774857175
aF-1.4015570890450402
aF-0.17368829595690966
aF-1.23859094109182
asg9
(lp181
F0.10287862881413634
aF-0.26399074317236254
aF0.16976916550547516
aF0.3082052801773382
aF0.7183478066954838
aF0.3059360373212694
aF0.717114086581641
aF0.8964774716749058
aF0.7698342787441457
aF-0.7820810355758878
aF-0.7865809150375247
aF0.09706035976320794
aF0.2751522361132222
aF-0.5277116944427046
asg11
g1
(g12
g3
Ntp182
Rp183
(dp184
g16
g176
sbsbag1
(g2
g3
Ntp185
Rp186
(dp187
g7
(lp188
F-1.0222602261878437
aF0.15997354771007274
aF0.3411002638871009
aF0.424805982456608
aF-0.9134492557461452
aF0.5678220825533302
aF0.5628510390949989
aF0.9839393895879882
aF0.9776647009511351
aF-0.6374583853445797
aF-0.6676635248394591
aF-0.4005672398066439
aF-0.3948837239837621
aF-1.9584006258997788
asg9
(lp189
F-0.1882996263152707
aF0.27767960999312424
aF1.0052605896136355
aF0.31563307595261175
aF1.222068828181756
aF0.16952590062350809
aF0.3482482229533281
aF0.3403975839932316
aF1.2129365138616903
aF-0.88315463192767
aF-0.3140388211985169
aF-0.12578679302000312
aF-0.18298587997495075
aF-0.6012980931159082
asg11
g1
(g12
g3
Ntp190
Rp191
(dp192
g16
(F-1.0
F0.0
F0.0
tp193
sbsbag1
(g2
g3
Ntp194
Rp195
(dp196
g7
(lp197
F-1.0222602261878437
aF0.15997354771007274
aF0.3411002638871009
aF0.424805982456608
aF-0.9134492557461452
aF0.5678220825533302
aF0.5628510390949989
aF0.9839393895879882
aF0.9776647009511351
aF-0.6374583853445797
aF-0.6676635248394591
aF-0.4005672398066439
aF-0.3948837239837621
aF-1.9584006258997788
asg9
(lp198
F-0.1882996263152707
aF0.27767960999312424
aF1.0052605896136355
aF0.31563307595261175
aF1.222068828181756
aF0.16952590062350809
aF0.3482482229533281
aF0.3403975839932316
aF1.2129365138616903
aF-0.88315463192767
aF-0.3140388211985169
aF-0.12578679302000312
aF-0.18298587997495075
aF-0.6012980931159082
asg11
g1
(g12
g3
Ntp199
Rp200
(dp201
g16
g193
sbsbag1
(g2
g3
Ntp202
Rp203
(dp204
g7
(lp205
F-0.0037556220995041685
aF0.25565089267878166
aF1.3076325171449512
aF1.048034619533237
aF0.972374430590834
aF0.6783765777433514
aF1.095646075672789
aF1.9065776235893754
aF-0.2140627979081518
aF-1.0707711977851369
aF-1.823321096013025
aF-0.6419176533032664
aF-0.2932013195110834
aF-0.798911840466685
asg9
(lp206
F-0.41718669814432996
aF0.6120349523658938
aF0.8719379899727999
aF-0.3406506215627425
aF1.052101773952209
aF0.7811869607884256
aF1.0025805072652942
aF1.2483936242619584
aF0.12292650824626866
aF0.9554916537179088
aF0.11861888456834076
aF-0.9876306473626624
aF-0.7940554804484282
aF-1.9450909335936302
asg11
g1
(g12
g3
Ntp207
Rp208
(dp209
g16
(F5.0
F0.0
F0.0
tp210
sbsbag1
(g2
g3
Ntp211
Rp212
(dp213
g7
(lp214
F-0.003755622099504169
aF-0.9754786809365212
aF1.0364642313464014
aF1.2496212351516682
aF-0.44072187488796905
aF0.8649369861856506
aF0.0658169627760623
aF0.2643861730787165
aF0.6506349710101103
aF-0.7780899186765045
aF-0.1813720054506156
aF-0.5263954831153835
aF-0.45184049141659344
aF-1.0895229796906836
asg9
(lp215
F-0.9155226099534584
aF0.8058367509257786
aF0.36720223568223065
aF0.01740754208124612
aF0.42056886718756803
aF1.891273602443584
aF1.050757815810631
aF0.2784026085550877
aF0.33987312304450823
aF0.4656537475985336
aF-0.5587484512303069
aF-0.8406795267567484
aF-0.4726413421082466
aF-0.30168516006527296
asg11
g1
(g12
g3
Ntp216
Rp217
(dp218
g16
(F4.0
F0.0
F0.0
tp219
sbsbag1
(g2
g3
Ntp220
Rp221
(dp222
g7
(lp223
F1.1176800045827793
aF-0.5962062183209731
aF-0.2446338189496573
aF0.6322881267296983
aF-0.633864659714594
aF-0.32863343848197135
aF0.6741482131621923
aF0.8389095983651823
aF-0.14528568730670366
aF0.9769432276917331
aF0.2867341229808467
aF1.4524461862502023
aF0.09411129101683313
aF0.2516482682496869
asg9
(lp224
F0.829886204874611
aF-1.265166946136125
aF0.1277132832246105
aF0.49056511266756897
aF-0.6457282811328209
aF0.26189335963324245
aF0.7635264342526706
aF0.2789888710745817
aF0.473263361343943
aF0.5649276449767993
aF-0.7165135327512113
aF-1.4459364128834318
aF-1.1241600945552106
aF-0.5888898335614394
asg11
g1
(g12
g3
Ntp225
Rp226
(dp227
g16
(F4.0
F0.0
F0.0
tp228
sbsbag1
(g2
g3
Ntp229
Rp230
(dp231
g7
(lp232
F0.015401946560683166
aF-0.5962062183209731
aF-0.2446338189496573
aF0.6322881267296983
aF0.45687937791329025
aF-0.32863343848197135
aF0.6741482131621923
aF0.6226959752213981
aF-0.14528568730670366
aF0.9769432276917331
aF-0.14728755820741402
aF0.7526826469047152
aF0.09411129101683313
aF-0.2546103534063935
asg9
(lp233
F0.42428786827711473
aF-0.9242508917973451
aF0.31274982577935706
aF0.49056511266756897
aF-0.6457282811328209
aF0.26189335963324245
aF0.7635264342526706
aF-0.19379301560447582
aF0.473263361343943
aF0.5649276449767993
aF-0.7165135327512113
aF0.2824998819482547
aF-0.6918398478006775
aF-0.5888898335614394
asg11
g1
(g12
g3
Ntp234
Rp235
(dp236
g16
(F-1.0
F0.0
F0.0
tp237
sbsbag1
(g2
g3
Ntp238
Rp239
(dp240
g7
(lp241
F-0.9008610063208567
aF1.7120537588233251
aF0.33408387475168316
aF0.8448337804164352
aF0.7189409807634686
aF1.723112577366967
aF0.35318384776718986
aF0.8864920914871836
aF-0.2999799850432758
aF-1.067924976575967
aF0.021291135317949766
aF0.675125594760393
aF-0.5817732948432541
aF-1.2631879990280224
asg9
(lp242
F-0.16518370908479296
aF-0.08684814174230737
aF-0.07732202802903115
aF0.13156174736941662
aF0.3838753153251586
aF0.3294239521143686
aF0.5189771825424798
aF1.553664907574554
aF1.732216810480873
aF-0.5565400860063167
aF-0.364100441301601
aF-1.1407902524234919
aF-0.10096238109127137
aF-0.7084519833252316
asg11
g1
(g12
g3
Ntp243
Rp244
(dp245
g16
(F2.0
F0.0
F0.0
tp246
sbsbag1
(g2
g3
Ntp247
Rp248
(dp249
g7
(lp250
F-0.5614129647240631
aF0.20828886173658617
aF0.23813291416820698
aF0.2544442350336116
aF0.27514430084846986
aF0.07660817084137168
aF0.35098661296677475
aF-0.08289843087922458
aF0.28146957040957565
aF-0.34898335562490346
aF-2.365661632824663
aF-0.10934648605743175
aF0.8088185294369693
aF-0.7462586826909189
asg9
(lp251
F-1.030042034962804
aF0.5761961102868934
aF0.20270582888332855
aF0.2001795219798735
aF-1.0401727347468632
aF0.5609352234542293
aF0.7410888432250777
aF0.2321584527741275
aF0.40627954199566024
aF-0.6995901835320095
aF-0.19832338658025
aF-0.3581350173505689
aF-0.5408698373712167
aF-0.5477886385841633
asg11
g1
(g12
g3
Ntp252
Rp253
(dp254
g16
(F-1.0
F0.0
F0.0
tp255
sbsbag1
(g2
g3
Ntp256
Rp257
(dp258
g7
(lp259
F-0.06049522580244823
aF0.7071209055437098
aF2.191142801463009
aF-1.2126379348723866
aF0.6559274057078232
aF0.27321317506504517
aF0.3682216491274421
aF0.14112739343901276
aF0.2927380870944915
aF-0.4326185377125882
aF-0.5124266728177793
aF-0.9447899585654391
aF-0.49624226597257604
aF-0.15146050989697413
asg9
(lp260
F-0.11009750788191171
aF-0.08793546221589246
aF0.8685837005869264
aF0.5527655119273389
aF0.5042135409298306
aF0.43682057787862183
aF0.5548724540001101
aF0.3353050151661225
aF0.5261933799558793
aF-1.248022200104903
aF0.5190587836889842
aF-0.5376160138538879
aF0.8097446644406254
aF-0.777980059482289
asg11
g1
(g12
g3
Ntp261
Rp262
(dp263
g16
(F-1.0
F0.0
F0.0
tp264
sbsbag1
(g2
g3
Ntp265
Rp266
(dp267
g7
(lp268
F-0.06049522580244823
aF0.7071209055437098
aF2.191142801463009
aF-1.2126379348723866
aF0.6559274057078232
aF0.27321317506504517
aF0.3682216491274421
aF0.14112739343901276
aF0.2927380870944915
aF-0.4326185377125882
aF-0.5124266728177793
aF-0.9447899585654391
aF-0.49624226597257604
aF-0.15146050989697413
asg9
(lp269
F-0.11009750788191171
aF-0.08793546221589246
aF0.8685837005869264
aF0.5527655119273389
aF0.5042135409298306
aF0.43682057787862183
aF0.5548724540001101
aF0.3353050151661225
aF0.5261933799558793
aF-1.248022200104903
aF0.5190587836889842
aF-0.5376160138538879
aF0.8097446644406254
aF-0.777980059482289
asg11
g1
(g12
g3
Ntp270
Rp271
(dp272
g16
g264
sbsbag1
(g2
g3
Ntp273
Rp274
(dp275
g7
(lp276
F-0.012644209975511411
aF0.8329483908414365
aF0.3731385404726243
aF-0.004620078777457983
aF0.39865988465087027
aF0.4717707253227914
aF0.6161473304963533
aF0.6961863152430816
aF1.7367474898616533
aF-0.9710913744449817
aF-0.9643850092402158
aF-0.07488711785795843
aF-0.9402127929974954
aF-0.8947364013051604
asg9
(lp277
F-0.7039470741295973
aF0.8036266595303895
aF-0.23834537842744655
aF0.1578958265363199
aF0.19601006367554497
aF1.4529425964037905
aF0.5127675627039335
aF0.4877955404230206
aF0.3660761393467602
aF-0.6976196221704929
aF-0.48458416078253574
aF-0.6514624865268992
aF-1.2638389017492047
aF-0.5031837693807415
asg11
g1
(g12
g3
Ntp278
Rp279
(dp280
g16
(F6.0
F0.0
F0.0
tp281
sbsbag1
(g2
g3
Ntp282
Rp283
(dp284
g7
(lp285
F-0.04262650855676775
aF0.8213605882310412
aF0.36059808454655173
aF0.44076180467900294
aF0.7027013071537329
aF0.29395265435885576
aF0.5007046286402621
aF0.3543397335392865
aF0.8814605710892738
aF-0.9784270298327118
aF-0.9148261402935642
aF-0.6796389961055797
aF-0.059459703891988736
aF-0.740478298157587
asg9
(lp286
F-0.48727334228322583
aF0.7303799687987829
aF0.5640188811513055
aF0.1296697917665769
aF0.17515365498626578
aF0.8403522990551928
aF0.5082963948989281
aF0.5847125418862025
aF0.46132526634809495
aF-0.5794262009923744
aF-0.07239950046503218
aF-0.4217075217281785
aF-0.7451214474619952
aF-0.5031293792154626
asg11
g1
(g12
g3
Ntp287
Rp288
(dp289
g16
(F-1.0
F0.0
F0.0
tp290
sbsbag1
(g2
g3
Ntp291
Rp292
(dp293
g7
(lp294
F-0.9157004299386253
aF0.3401470516204965
aF0.12870914583385462
aF0.5238012645796656
aF0.6417529708344926
aF0.07151807993597792
aF0.9615094125851203
aF0.5243704733141987
aF0.5190868175698714
aF-0.4062968221037535
aF-0.12591753138634487
aF-0.5868652995677442
aF-0.6191059668781462
aF-0.9002829392328054
asg9
(lp295
F-0.8212235615494462
aF0.8097442498645544
aF0.8104953952798203
aF0.8930162444936304
aF0.26241744868036276
aF0.202459022184594
aF0.08847958999197547
aF0.6291242739831137
aF0.27230950235405504
aF-0.7357224189621191
aF-0.44352352223221936
aF-0.9778643004794318
aF-0.3237639313680696
aF-0.06852614487913888
asg11
g1
(g12
g3
Ntp296
Rp297
(dp298
g16
(F-1.0
F0.0
F0.0
tp299
sbsbag1
(g2
g3
Ntp300
Rp301
(dp302
g7
(lp303
F-0.018080240461409547
aF-0.3847161517607596
aF-0.30952662138270104
aF-0.8148710295063675
aF-0.7902546631199372
aF0.3137385625946618
aF0.8620262934916301
aF0.9356431950770345
aF-0.017223860114659928
aF-0.9925218834710436
aF0.6362098933909879
aF-0.012725268096974274
aF0.8737825742410632
aF-0.9566798134050061
asg9
(lp304
F-0.1726082619863032
aF0.2401630022643022
aF-0.13222468767306084
aF-0.2253029257711081
aF-0.9569242401181015
aF-0.9634212969069111
aF-0.9550884715886683
aF-0.6663143833658138
aF0.8723734547721387
aF0.24917830048091183
aF-0.055288694524265436
aF-0.7240319682563183
aF0.2736945420313912
aF0.32177320188946545
asg11
g1
(g12
g3
Ntp305
Rp306
(dp307
g16
(F-1.0
F0.0
F0.0
tp308
sbsbag1
(g2
g3
Ntp309
Rp310
(dp311
g7
(lp312
F-0.7278596440188382
aF1.0760246534107356
aF1.006112834572931
aF0.4646404282096277
aF0.7415292117120448
aF0.4618710368436405
aF0.9171722146190747
aF0.6546570179194405
aF0.46029578274145183
aF-0.15891237042007064
aF-0.32066714994473255
aF-0.07321179826624521
aF-0.8686100033575285
aF-0.28704683435893924
asg9
(lp313
F-1.1248926817675793
aF0.625316233301893
aF0.4214954636956376
aF0.6743510102338484
aF0.8002449533602196
aF0.8973053403869189
aF0.4245257623352321
aF0.13463131723966143
aF0.8441724215929531
aF-0.21140474231229525
aF-0.4645069381239742
aF-0.23561911979353928
aF-0.6177107447527618
aF-0.5294933187989956
asg11
g1
(g12
g3
Ntp314
Rp315
(dp316
g16
(F-1.0
F0.0
F0.0
tp317
sbsbag1
(g2
g3
Ntp318
Rp319
(dp320
g7
(lp321
F0.10004291726997615
aF0.7856910505104565
aF0.13791806624479136
aF-0.21894440878124993
aF0.4019299733641284
aF0.4993156976503267
aF1.2733648570317921
aF0.7228765566414153
aF-0.18440157042752334
aF0.5536686633897152
aF-0.3436944883566583
aF0.19516451080134514
aF-0.7969756704310996
aF0.23972899992310032
asg9
(lp322
F-0.7918075407778893
aF1.361493655526404
aF0.4663741054104442
aF0.6666853211435698
aF0.8284070476824585
aF0.6193520275059166
aF0.34863024863480235
aF0.23670218001465665
aF0.9306166221831698
aF-0.5073919052343303
aF-0.5902194881435927
aF-1.1982577890407766
aF-0.8190057067242767
aF-0.21164731572271708
asg11
g1
(g12
g3
Ntp323
Rp324
(dp325
g16
(F-1.0
F0.0
F0.0
tp326
sbsbag1
(g2
g3
Ntp327
Rp328
(dp329
g7
(lp330
F-0.10108298007986949
aF-0.12196157084555594
aF1.770689599176674
aF0.5619114197960435
aF-0.8196022677413409
aF0.48319025408375205
aF1.3785628118267876
aF0.88580535102317
aF0.47275013756638545
aF0.7145477158487034
aF-0.5613262438964799
aF-0.5736309899300032
aF-1.2905163640238695
aF-0.8669405579991226
asg9
(lp331
F-0.7125276491415022
aF0.9795360922657728
aF1.2273343047446004
aF0.1284239856140688
aF1.125118456975414
aF0.9540740536318169
aF1.3779340659802943
aF0.5950617061564266
aF0.14271929434020836
aF-0.27868197760941293
aF-0.910546151762453
aF-0.5830914753932306
aF-0.8655939572544562
aF-0.3467955072553337
asg11
g1
(g12
g3
Ntp332
Rp333
(dp334
g16
(F6.0
F0.0
F0.0
tp335
sbsbag1
(g2
g3
Ntp336
Rp337
(dp338
g7
(lp339
F-0.10108298007986949
aF-0.12196157084555594
aF1.770689599176674
aF0.5619114197960435
aF-0.8196022677413409
aF0.48319025408375205
aF1.3785628118267876
aF0.88580535102317
aF0.47275013756638545
aF0.7145477158487034
aF-0.5613262438964799
aF-0.5736309899300032
aF-1.2905163640238695
aF-0.8669405579991226
asg9
(lp340
F-0.7125276491415022
aF0.9795360922657728
aF1.2273343047446004
aF0.1284239856140688
aF1.125118456975414
aF0.9540740536318169
aF1.3779340659802943
aF0.5950617061564266
aF0.14271929434020836
aF-0.27868197760941293
aF-0.910546151762453
aF-0.5830914753932306
aF-0.8655939572544562
aF-0.3467955072553337
asg11
g1
(g12
g3
Ntp341
Rp342
(dp343
g16
g335
sbsbag1
(g2
g3
Ntp344
Rp345
(dp346
g7
(lp347
F-0.6042280203388071
aF0.21192664791197324
aF0.3125853681750272
aF-1.094359988382457
aF-0.7352979841705802
aF1.8059486685752124
aF1.066163552181487
aF-0.27425627233288863
aF-0.36078903106731475
aF-1.0130693801932997
aF-0.9785327230834833
aF-0.26840580784416346
aF-0.40146767313362225
aF-0.5156413614558432
asg9
(lp348
F0.001100108418961021
aF-0.5384893633106891
aF0.293789770575722
aF0.5967510658567805
aF0.3881316183483485
aF0.07682969933889582
aF1.3355238547664
aF1.010004683892281
aF0.6625756256751814
aF-0.06358303758896558
aF-0.18455504802785744
aF-0.01214865893412631
aF-1.9418032858481191
aF-1.01161575465995
asg11
g1
(g12
g3
Ntp349
Rp350
(dp351
g16
(F10.0
F0.0
F0.0
tp352
sbsbag1
(g2
g3
Ntp353
Rp354
(dp355
g7
(lp356
F-0.6042280203388071
aF0.21192664791197324
aF0.3125853681750272
aF-1.094359988382457
aF-0.7352979841705802
aF1.8059486685752124
aF1.066163552181487
aF-0.27425627233288863
aF-0.36078903106731475
aF-1.0130693801932997
aF-0.9785327230834833
aF-0.26840580784416346
aF-0.40146767313362225
aF-0.5156413614558432
asg9
(lp357
F0.001100108418961021
aF-0.5384893633106891
aF0.293789770575722
aF0.5967510658567805
aF0.3881316183483485
aF0.07682969933889582
aF1.3355238547664
aF1.010004683892281
aF0.6625756256751814
aF-0.06358303758896558
aF-0.18455504802785744
aF-0.01214865893412631
aF-1.9418032858481191
aF-1.01161575465995
asg11
g1
(g12
g3
Ntp358
Rp359
(dp360
g16
g352
sbsbag1
(g2
g3
Ntp361
Rp362
(dp363
g7
(lp364
F-0.5143765797211363
aF0.17190853987912547
aF0.35461119350809167
aF0.38424656404443397
aF0.8509925450378018
aF0.2923988771436953
aF0.3903894722061707
aF0.5002244299082703
aF0.2728854337559149
aF-0.18864290453412244
aF-0.2819422890171617
aF-0.2889490696823721
aF-0.9528617304556046
aF-0.8576445794297543
asg9
(lp365
F-0.011279924843926814
aF0.20466569755926523
aF0.5941778063015868
aF0.9533131891123343
aF0.25339758617789776
aF0.7737496973513882
aF0.792050108153046
aF0.1888239681335725
aF0.9872996484070894
aF-0.8117455552638612
aF-0.8666617807060658
aF-0.5424867326230645
aF-0.9952782712280429
aF-0.70141105366659
asg11
g1
(g12
g3
Ntp366
Rp367
(dp368
g16
(F5.0
F0.0
F0.0
tp369
sbsbag1
(g2
g3
Ntp370
Rp371
(dp372
g7
(lp373
F-0.5143765797211363
aF0.17190853987912547
aF0.35461119350809167
aF0.384246564044434
aF0.8509925450378018
aF0.2923988771436953
aF0.3903894722061707
aF0.5002244299082703
aF0.2728854337559149
aF-0.18864290453412247
aF-0.2819422890171617
aF-0.2889490696823721
aF-0.9528617304556046
aF-0.8576445794297543
asg9
(lp374
F-0.011279924843926814
aF0.20466569755926523
aF0.5941778063015868
aF0.9533131891123343
aF0.25339758617789776
aF0.7737496973513882
aF0.792050108153046
aF0.1888239681335725
aF0.9872996484070893
aF-0.8117455552638612
aF-0.8666617807060658
aF-0.5424867326230645
aF-0.9952782712280429
aF-0.70141105366659
asg11
g1
(g12
g3
Ntp375
Rp376
(dp377
g16
(F3.0
F0.0
F0.0
tp378
sbsbag1
(g2
g3
Ntp379
Rp380
(dp381
g7
(lp382
F-0.903740202513622
aF0.42701691188508056
aF0.43280000504721877
aF1.3242194135616685
aF2.2796464925732556
aF0.5000890731740669
aF-0.6176847576998791
aF0.35777800251172764
aF0.5139433029631478
aF-1.2690944373594184
aF-0.7485002179206566
aF-0.2678179369040887
aF-1.2939118331259025
aF-0.8386280048730747
asg9
(lp383
F-1.056915052666985
aF1.1782452795875993
aF1.4059629686951807
aF0.30227598853474
aF-0.08476027370253106
aF0.047576241748738916
aF1.6333812871702453
aF1.6356779271696968
aF0.04660566778719606
aF-0.8319315219640063
aF-1.6146431817316993
aF0.24327523344483215
aF0.4208425522072068
aF0.05399282892973861
asg11
g1
(g12
g3
Ntp384
Rp385
(dp386
g16
(F2.0
F0.0
F0.0
tp387
sbsbag1
(g2
g3
Ntp388
Rp389
(dp390
g7
(lp391
F-0.903740202513622
aF0.42701691188508056
aF0.43280000504721877
aF1.3242194135616685
aF2.2796464925732556
aF0.5000890731740669
aF-0.6176847576998791
aF0.35777800251172764
aF0.5139433029631478
aF-1.2690944373594184
aF-0.7485002179206566
aF-0.2678179369040887
aF-1.2939118331259025
aF-0.8386280048730747
asg9
(lp392
F-1.056915052666985
aF1.1782452795875993
aF1.4059629686951807
aF0.30227598853474
aF-0.08476027370253106
aF0.047576241748738916
aF1.6333812871702453
aF1.6356779271696968
aF0.04660566778719606
aF-0.8319315219640063
aF-1.6146431817316993
aF0.24327523344483215
aF0.4208425522072068
aF0.05399282892973861
asg11
g1
(g12
g3
Ntp393
Rp394
(dp395
g16
g387
sbsbag1
(g2
g3
Ntp396
Rp397
(dp398
g7
(lp399
F-0.40238510835251257
aF1.3561399702260852
aF0.2699176091922516
aF0.30109558201309067
aF0.6339780389624303
aF0.39734795464054795
aF0.08926562815277403
aF0.28060889222352325
aF0.5281516234640288
aF-0.26897788472373396
aF-0.7228059271018736
aF-0.7237286090692445
aF-0.27319688908375855
aF-1.0377727429824206
asg9
(lp400
F-0.004885485876234077
aF0.21423996800252157
aF0.3086675566458194
aF-0.02574731529147628
aF0.4769003455337362
aF1.1306101493207303
aF-0.8359089758016077
aF-0.4012983206314308
aF0.43861775752800514
aF-0.2985019124330026
aF-0.44875484257804454
aF-1.316905309474492
aF-1.9092352252896119
aF-0.559758055682521
asg11
g1
(g12
g3
Ntp401
Rp402
(dp403
g16
(F8.0
F0.0
F0.0
tp404
sbsbag1
(g2
g3
Ntp405
Rp406
(dp407
g7
(lp408
F-0.40238510835251257
aF1.3561399702260852
aF0.2699176091922516
aF0.30109558201309067
aF0.6339780389624303
aF0.39734795464054795
aF0.08926562815277403
aF0.28060889222352325
aF0.5281516234640288
aF-0.26897788472373396
aF-0.7228059271018736
aF-0.7237286090692445
aF-0.27319688908375855
aF-1.0377727429824206
asg9
(lp409
F-0.004885485876234077
aF0.21423996800252157
aF0.3086675566458194
aF-0.02574731529147628
aF0.4769003455337362
aF1.1306101493207303
aF-0.8359089758016077
aF-0.4012983206314308
aF0.43861775752800514
aF-0.2985019124330026
aF-0.44875484257804454
aF-1.316905309474492
aF-1.9092352252896119
aF-0.559758055682521
asg11
g1
(g12
g3
Ntp410
Rp411
(dp412
g16
g404
sbsbag1
(g2
g3
Ntp413
Rp414
(dp415
g7
(lp416
F-0.017723549777239556
aF0.10800360755122568
aF1.5955919928894955
aF1.7763217283936477
aF-0.9002802069066114
aF0.29986553225070905
aF-0.3138779762989166
aF-0.4539998400681594
aF0.2701232980641355
aF-0.8855357021822945
aF0.8867766883388649
aF0.12971701233698035
aF0.1409825441047468
aF-0.6300611602843433
asg9
(lp417
F0.8069769080550037
aF0.03317030182388753
aF0.46334921243869925
aF0.1053752071673107
aF0.08896082100693553
aF-0.018473942106272317
aF1.1316788550515888
aF0.909226608112592
aF0.7542830437806534
aF-0.12408015828716638
aF-0.45746101212992474
aF1.0496727375568442
aF-0.8943779427055416
aF-0.5182036623944823
asg11
g1
(g12
g3
Ntp418
Rp419
(dp420
g16
(F6.0
F0.0
F0.0
tp421
sbsbag1
(g2
g3
Ntp422
Rp423
(dp424
g7
(lp425
F-0.017723549777239556
aF0.10800360755122568
aF1.5955919928894955
aF1.7763217283936479
aF-0.9002802069066115
aF0.29986553225070905
aF-0.3138779762989166
aF-0.4539998400681594
aF0.2701232980641355
aF-0.8855357021822945
aF0.8867766883388649
aF0.12971701233698035
aF0.1409825441047468
aF-0.6300611602843433
asg9
(lp426
F0.8069769080550038
aF0.03317030182388753
aF0.46334921243869925
aF0.1053752071673107
aF0.08896082100693553
aF-0.018473942106272317
aF1.1316788550515888
aF0.909226608112592
aF0.7542830437806535
aF-0.12408015828716638
aF-0.45746101212992474
aF1.0496727375568442
aF-0.8943779427055416
aF-0.5182036623944823
asg11
g1
(g12
g3
Ntp427
Rp428
(dp429
g16
(F2.0
F0.0
F0.0
tp430
sbsbag1
(g2
g3
Ntp431
Rp432
(dp433
g7
(lp434
F-0.02450422643518746
aF0.5863642492763462
aF0.3871401689404458
aF0.7183776285050474
aF0.5355916875052295
aF0.6798134154962228
aF0.2072364420346252
aF0.1995069862374489
aF0.6154692309535945
aF-0.19893968274890683
aF-0.8304466367805093
aF-0.027179633589421437
aF-0.0389558221982228
aF-0.29690044705276664
asg9
(lp435
F-0.04009632153387621
aF0.6933846531930262
aF0.15375854934226008
aF0.14382214544507466
aF0.19931911635079191
aF0.8089976150925401
aF0.23752316294318887
aF0.9902662241670368
aF0.3266397438463251
aF-0.5513147887798214
aF-0.024806558946706025
aF-0.25912177893948674
aF-0.6703716398616447
aF-0.613115266548559
asg11
g1
(g12
g3
Ntp436
Rp437
(dp438
g16
(F-1.0
F0.0
F0.0
tp439
sbsbag1
(g2
g3
Ntp440
Rp441
(dp442
g7
(lp443
F-0.051463413088260634
aF0.24582759231928242
aF0.3286944689430379
aF0.4453371668827413
aF0.4348711289480399
aF0.6596142278841053
aF0.18960981628329343
aF0.36672446810175097
aF0.26848034185085357
aF-0.5931983786757079
aF-0.9714642785672516
aF-0.32854663824078323
aF-0.8837652536542061
aF-0.40168668688239617
asg9
(lp444
F-0.03981381458866162
aF0.9250933864590757
aF0.8855877432412514
aF0.45583027933271636
aF0.7764592417285558
aF0.7548332531371382
aF0.37904079032426163
aF0.24323138142228284
aF0.7992431014411753
aF-0.30541243962438136
aF-0.04829685214813584
aF-0.04340275144746231
aF-0.17618085481981216
aF-0.44894378890579967
asg11
g1
(g12
g3
Ntp445
Rp446
(dp447
g16
(F-1.0
F0.0
F0.0
tp448
sbsbag1
(g2
g3
Ntp449
Rp450
(dp451
g7
(lp452
F-1.0247768257329408
aF-0.6438404601144798
aF0.46177107415847723
aF-0.1565969346996826
aF0.542314956533291
aF0.8849483467259759
aF0.6278018699090804
aF0.6613062751767663
aF-0.35502964752067034
aF-0.16442424157354668
aF-0.7748659791640724
aF-0.3526127299370551
aF0.48343473445696816
aF-2.780769037321739
asg9
(lp453
F0.5009818237970682
aF-0.323441378858228
aF-0.7997086117315347
aF-0.13246812847562806
aF-0.36038115943238386
aF-1.54044909342356
aF-0.7889210960251399
aF0.06818128146545688
aF-0.9221768644908868
aF0.867643642539468
aF0.34825023999772
aF-0.7357848215345567
aF-1.0976866089224915
aF-0.24631237610697743
asg11
g1
(g12
g3
Ntp454
Rp455
(dp456
g16
(F10.0
F0.0
F0.0
tp457
sbsbag1
(g2
g3
Ntp458
Rp459
(dp460
g7
(lp461
F-1.0247768257329408
aF-0.6438404601144798
aF0.46177107415847723
aF-0.1565969346996826
aF0.11037303140736085
aF0.47593441344429066
aF0.33694146571559885
aF0.7771955720539974
aF-0.9749497034514776
aF-0.24148124276586588
aF-0.7748659791640724
aF-0.3526127299370551
aF0.1836005977219275
aF-2.780769037321739
asg9
(lp462
F0.5009818237970682
aF-0.323441378858228
aF-0.20714212043218383
aF-0.13246812847562806
aF-0.03347610922275579
aF-1.4735417363800343
aF-0.8797263079259363
aF0.06818128146545688
aF-0.7342283288061611
aF1.2898684267719138
aF-0.3423994196304745
aF-0.3283283962077189
aF-1.0976866089224915
aF-0.24631237610697743
asg11
g1
(g12
g3
Ntp463
Rp464
(dp465
g16
(F10.0
F0.0
F0.0
tp466
sbsbag1
(g2
g3
Ntp467
Rp468
(dp469
g7
(lp470
F0.019652233578704593
aF2.4205968219357406
aF-0.024367556920808553
aF-0.43606480192121716
aF0.6171395908521988
aF-0.052744518672736385
aF0.8813838529969465
aF0.4631414850509238
aF0.1373009851427806
aF-0.40505208302163415
aF-1.1012562741648417
aF-0.2731496156259349
aF0.7724969587876622
aF-1.5812206149510222
asg9
(lp471
F-0.8114422301259712
aF1.11683800849827
aF0.8197331442460926
aF-0.3894395741141125
aF0.3959397600287695
aF0.15656296877786105
aF-0.630551235723858
aF1.0636800274461062
aF1.9874313268746036
aF0.240444515803184
aF-0.42306652461117333
aF-0.6985158074419104
aF-0.889066338122591
aF0.20653805910678025
asg11
g1
(g12
g3
Ntp472
Rp473
(dp474
g16
(F10.0
F0.0
F0.0
tp475
sbsbag1
(g2
g3
Ntp476
Rp477
(dp478
g7
(lp479
F0.0028685807646127116
aF0.8979380913261225
aF0.08825661931692558
aF0.9638793462752693
aF0.6962174822451139
aF0.7425651775374391
aF0.8266438182127973
aF0.5428909047165791
aF0.06877328777018002
aF-0.350275575014141
aF-0.2641383222148891
aF-0.27431705886345364
aF0.6449538126068368
aF-1.443834842305081
asg9
(lp480
F-0.8118781425267981
aF0.44550261020965526
aF1.0910469261061237
aF-0.10576683190042564
aF0.15871713676187738
aF0.3880237910467208
aF-0.2552776675779289
aF1.039769424023562
aF2.1704038454893464
aF0.28468976404612223
aF-0.4427840101953481
aF-0.85831318933688
aF-0.8917084699450073
aF0.16854754241652745
asg11
g1
(g12
g3
Ntp481
Rp482
(dp483
g16
(F6.0
F0.0
F0.0
tp484
sbsbag1
(g2
g3
Ntp485
Rp486
(dp487
g7
(lp488
F-1.0469765722912285
aF0.3981575043912502
aF-0.08995713337430881
aF0.13843363511610485
aF0.42578280615880487
aF0.19387648466612473
aF-0.38275272295981944
aF-2.382696323994974
aF0.9380352659566328
aF0.18836445107398067
aF-1.0268021707765504
aF0.9491330434974161
aF0.6829188714297891
aF-1.3566636461053836
asg9
(lp489
F-0.6028400380038007
aF-1.2826365536075166
aF-1.22843203059411
aF-1.446488358202766
aF0.6038968389795079
aF-0.4732516262654865
aF1.2093972884961293
aF-0.6421935880975476
aF-0.9531709394772778
aF0.46985549945272176
aF1.231383913917723
aF0.048519700400679544
aF-0.46298066151384776
aF-0.9506807857178268
asg11
g1
(g12
g3
Ntp490
Rp491
(dp492
g16
(F3.0
F0.0
F0.0
tp493
sbsbag1
(g2
g3
Ntp494
Rp495
(dp496
g7
(lp497
F-0.9076972216206957
aF-0.5330530884994802
aF1.0012762311724104
aF0.5012657124570462
aF-0.20608301519744252
aF0.4705234111125114
aF0.5211002622407283
aF-0.925687066287899
aF0.15577466243886234
aF0.037532356594176836
aF-0.12278397921421072
aF-0.1755666677793803
aF-0.638506833544124
aF-0.04531097779341581
asg9
(lp498
F0.17341418686675167
aF-0.46377730225930225
aF-0.7544700556473184
aF1.502405274380769
aF0.3674803003553631
aF-0.9718143537760793
aF0.4444841448414544
aF-0.896524312850399
aF0.2644487583238691
aF0.510461928623405
aF0.8900718855373893
aF-1.5933703705142777
aF-0.2648664977782424
aF0.0932410034435125
asg11
g1
(g12
g3
Ntp499
Rp500
(dp501
g16
(F3.0
F0.0
F0.0
tp502
sbsbag1
(g2
g3
Ntp503
Rp504
(dp505
g7
(lp506
F-1.0469765722912285
aF0.3981575043912502
aF-0.08995713337430881
aF0.13843363511610485
aF0.42578280615880487
aF0.19387648466612473
aF-0.38275272295981944
aF-2.382696323994974
aF0.9380352659566328
aF0.18836445107398067
aF-1.0268021707765504
aF0.9491330434974161
aF0.6829188714297891
aF-1.3566636461053836
asg9
(lp507
F-0.6028400380038007
aF-1.2826365536075166
aF-1.22843203059411
aF-1.446488358202766
aF0.6038968389795079
aF-0.4732516262654865
aF1.2093972884961293
aF-0.6421935880975476
aF-0.9531709394772778
aF0.46985549945272176
aF1.231383913917723
aF0.048519700400679544
aF-0.46298066151384776
aF-0.9506807857178268
asg11
g1
(g12
g3
Ntp508
Rp509
(dp510
g16
(F3.0
F0.0
F0.0
tp511
sbsbag1
(g2
g3
Ntp512
Rp513
(dp514
g7
(lp515
F-0.9076972216206957
aF-0.5330530884994802
aF1.0012762311724104
aF0.5012657124570462
aF-0.20608301519744252
aF0.4705234111125114
aF0.5211002622407283
aF-0.925687066287899
aF0.15577466243886234
aF0.037532356594176836
aF-0.12278397921421072
aF-0.1755666677793803
aF-0.638506833544124
aF-0.04531097779341581
asg9
(lp516
F0.17341418686675167
aF-0.46377730225930225
aF-0.7544700556473184
aF1.502405274380769
aF0.3674803003553631
aF-0.9718143537760793
aF0.4444841448414544
aF-0.896524312850399
aF0.2644487583238691
aF0.510461928623405
aF0.8900718855373893
aF-1.5933703705142777
aF-0.2648664977782424
aF0.0932410034435125
asg11
g1
(g12
g3
Ntp517
Rp518
(dp519
g16
(F3.0
F0.0
F0.0
tp520
sbsbag1
(g2
g3
Ntp521
Rp522
(dp523
g7
(lp524
F-1.017044201261975
aF-0.46815999162435656
aF2.1847229382577957
aF-0.5348235428806708
aF1.131248370843888
aF0.5853207904695262
aF-0.0813502316277954
aF-2.9933290104281185
aF0.3204389582010949
aF-0.016734757317229898
aF-1.0345098608075567
aF0.4212368371540823
aF1.0341309235639071
aF-1.967465015430883
asg9
(lp525
F0.9015333214308857
aF-0.45078793349880975
aF-1.1495580104602654
aF-0.25817822410385227
aF0.9112499785373716
aF-0.5408266170805142
aF1.1177599501104296
aF-0.640864724496425
aF-0.9392007757743793
aF0.24679333921719998
aF1.2983584756478797
aF-1.276335830210602
aF-0.258195170224252
aF-1.168393103087988
asg11
g1
(g12
g3
Ntp526
Rp527
(dp528
g16
(F10.0
F0.0
F0.0
tp529
sbsbag1
(g2
g3
Ntp530
Rp531
(dp532
g7
(lp533
F-1.017044201261975
aF-0.46815999162435656
aF2.1847229382577957
aF-0.5348235428806708
aF1.131248370843888
aF0.5853207904695262
aF-0.0813502316277954
aF-2.9933290104281185
aF0.3204389582010949
aF-0.016734757317229898
aF-1.0345098608075567
aF0.4212368371540823
aF1.0341309235639071
aF-1.967465015430883
asg9
(lp534
F0.9015333214308857
aF-0.45078793349880975
aF-1.1495580104602654
aF-0.25817822410385227
aF0.9112499785373716
aF-0.5408266170805142
aF1.1177599501104296
aF-0.640864724496425
aF-0.9392007757743793
aF0.24679333921719998
aF1.2983584756478797
aF-1.276335830210602
aF-0.258195170224252
aF-1.168393103087988
asg11
g1
(g12
g3
Ntp535
Rp536
(dp537
g16
g529
sbsbag1
(g2
g3
Ntp538
Rp539
(dp540
g7
(lp541
F-1.017044201261975
aF-0.46815999162435656
aF2.1847229382577957
aF-0.5348235428806708
aF1.131248370843888
aF0.5853207904695262
aF-0.0813502316277954
aF-2.9933290104281185
aF0.3204389582010949
aF-0.016734757317229898
aF-1.0345098608075567
aF0.4212368371540823
aF1.0341309235639071
aF-1.967465015430883
asg9
(lp542
F0.9015333214308857
aF-0.45078793349880975
aF-1.1495580104602654
aF-0.25817822410385227
aF0.9112499785373716
aF-0.5408266170805142
aF1.1177599501104296
aF-0.640864724496425
aF-0.9392007757743793
aF0.24679333921719998
aF1.2983584756478797
aF-1.276335830210602
aF-0.258195170224252
aF-1.168393103087988
asg11
g1
(g12
g3
Ntp543
Rp544
(dp545
g16
(F10.0
F0.0
F0.0
tp546
sbsbag1
(g2
g3
Ntp547
Rp548
(dp549
g7
(lp550
F-1.017044201261975
aF-0.46815999162435656
aF2.1847229382577957
aF-0.5348235428806708
aF1.131248370843888
aF0.5853207904695262
aF-0.0813502316277954
aF-2.9933290104281185
aF0.3204389582010949
aF-0.016734757317229898
aF-1.0345098608075567
aF0.4212368371540823
aF1.0341309235639071
aF-1.967465015430883
asg9
(lp551
F0.9015333214308857
aF-0.45078793349880975
aF-1.1495580104602654
aF-0.25817822410385227
aF0.9112499785373716
aF-0.5408266170805142
aF1.1177599501104296
aF-0.640864724496425
aF-0.9392007757743793
aF0.24679333921719998
aF1.2983584756478797
aF-1.276335830210602
aF-0.258195170224252
aF-1.168393103087988
asg11
g1
(g12
g3
Ntp552
Rp553
(dp554
g16
g546
sbsbag1
(g2
g3
Ntp555
Rp556
(dp557
g7
(lp558
F-1.017044201261975
aF-0.46815999162435656
aF2.1847229382577957
aF-0.5348235428806708
aF1.131248370843888
aF0.5853207904695262
aF-0.0813502316277954
aF-2.9933290104281185
aF0.3204389582010949
aF-0.016734757317229898
aF-1.0345098608075567
aF0.4212368371540823
aF1.0341309235639071
aF-1.967465015430883
asg9
(lp559
F0.9015333214308857
aF-0.45078793349880975
aF-1.1495580104602654
aF-0.25817822410385227
aF0.9112499785373716
aF-0.5408266170805142
aF1.1177599501104296
aF-0.640864724496425
aF-0.9392007757743793
aF0.24679333921719998
aF1.2983584756478797
aF-1.276335830210602
aF-0.258195170224252
aF-1.168393103087988
asg11
g1
(g12
g3
Ntp560
Rp561
(dp562
g16
(F10.0
F0.0
F0.0
tp563
sbsbag1
(g2
g3
Ntp564
Rp565
(dp566
g7
(lp567
F-1.017044201261975
aF-0.46815999162435656
aF2.1847229382577957
aF-0.5348235428806708
aF1.131248370843888
aF0.5853207904695262
aF-0.0813502316277954
aF-2.9933290104281185
aF0.3204389582010949
aF-0.016734757317229898
aF-1.0345098608075567
aF0.4212368371540823
aF1.0341309235639071
aF-1.967465015430883
asg9
(lp568
F0.9015333214308857
aF-0.45078793349880975
aF-1.1495580104602654
aF-0.25817822410385227
aF0.9112499785373716
aF-0.5408266170805142
aF1.1177599501104296
aF-0.640864724496425
aF-0.9392007757743793
aF0.24679333921719998
aF1.2983584756478797
aF-1.276335830210602
aF-0.258195170224252
aF-1.168393103087988
asg11
g1
(g12
g3
Ntp569
Rp570
(dp571
g16
g563
sbsbag1
(g2
g3
Ntp572
Rp573
(dp574
g7
(lp575
F-1.017044201261975
aF-0.46815999162435656
aF2.1847229382577957
aF-0.5348235428806708
aF1.131248370843888
aF0.5853207904695262
aF-0.0813502316277954
aF-2.9933290104281185
aF0.3204389582010949
aF-0.016734757317229898
aF-1.0345098608075567
aF0.4212368371540823
aF1.0341309235639071
aF-1.967465015430883
asg9
(lp576
F0.9015333214308857
aF-0.45078793349880975
aF-1.1495580104602654
aF-0.25817822410385227
aF0.9112499785373716
aF-0.5408266170805142
aF1.1177599501104296
aF-0.640864724496425
aF-0.9392007757743793
aF0.24679333921719998
aF1.2983584756478797
aF-1.276335830210602
aF-0.258195170224252
aF-1.168393103087988
asg11
g1
(g12
g3
Ntp577
Rp578
(dp579
g16
(F10.0
F0.0
F0.0
tp580
sbsbag1
(g2
g3
Ntp581
Rp582
(dp583
g7
(lp584
F-1.017044201261975
aF-0.46815999162435656
aF2.1847229382577957
aF-0.5348235428806708
aF1.131248370843888
aF0.5853207904695262
aF-0.0813502316277954
aF-2.9933290104281185
aF0.3204389582010949
aF-0.016734757317229898
aF-1.0345098608075567
aF0.4212368371540823
aF1.0341309235639071
aF-1.967465015430883
asg9
(lp585
F0.9015333214308857
aF-0.45078793349880975
aF-1.1495580104602654
aF-0.25817822410385227
aF0.9112499785373716
aF-0.5408266170805142
aF1.1177599501104296
aF-0.640864724496425
aF-0.9392007757743793
aF0.24679333921719998
aF1.2983584756478797
aF-1.276335830210602
aF-0.258195170224252
aF-1.168393103087988
asg11
g1
(g12
g3
Ntp586
Rp587
(dp588
g16
g580
sbsbag1
(g2
g3
Ntp589
Rp590
(dp591
g7
(lp592
F-1.017044201261975
aF-0.46815999162435656
aF2.1847229382577957
aF-0.5348235428806708
aF1.131248370843888
aF0.5853207904695262
aF-0.0813502316277954
aF-2.9933290104281185
aF0.3204389582010949
aF-0.016734757317229898
aF-1.0345098608075567
aF0.4212368371540823
aF1.0341309235639071
aF-1.967465015430883
asg9
(lp593
F0.9015333214308857
aF-0.45078793349880975
aF-1.1495580104602654
aF-0.25817822410385227
aF0.9112499785373716
aF-0.5408266170805142
aF1.1177599501104296
aF-0.640864724496425
aF-0.9392007757743793
aF0.24679333921719998
aF1.2983584756478797
aF-1.276335830210602
aF-0.258195170224252
aF-1.168393103087988
asg11
g1
(g12
g3
Ntp594
Rp595
(dp596
g16
(F10.0
F0.0
F0.0
tp597
sbsbag1
(g2
g3
Ntp598
Rp599
(dp600
g7
(lp601
F-1.017044201261975
aF-0.46815999162435656
aF2.1847229382577957
aF-0.5348235428806708
aF1.131248370843888
aF0.5853207904695262
aF-0.0813502316277954
aF-2.9933290104281185
aF0.3204389582010949
aF-0.016734757317229898
aF-1.0345098608075567
aF0.4212368371540823
aF1.0341309235639071
aF-1.967465015430883
asg9
(lp602
F0.9015333214308857
aF-0.45078793349880975
aF-1.1495580104602654
aF-0.25817822410385227
aF0.9112499785373716
aF-0.5408266170805142
aF1.1177599501104296
aF-0.640864724496425
aF-0.9392007757743793
aF0.24679333921719998
aF1.2983584756478797
aF-1.276335830210602
aF-0.258195170224252
aF-1.168393103087988
asg11
g1
(g12
g3
Ntp603
Rp604
(dp605
g16
g597
sbsbag1
(g2
g3
Ntp606
Rp607
(dp608
g7
(lp609
F-1.017044201261975
aF-0.46815999162435656
aF2.1847229382577957
aF-0.5348235428806708
aF1.131248370843888
aF0.5853207904695262
aF-0.0813502316277954
aF-2.9933290104281185
aF0.3204389582010949
aF-0.016734757317229898
aF-1.0345098608075567
aF0.4212368371540823
aF1.0341309235639071
aF-1.967465015430883
asg9
(lp610
F0.9015333214308857
aF-0.45078793349880975
aF-1.1495580104602654
aF-0.25817822410385227
aF0.9112499785373716
aF-0.5408266170805142
aF1.1177599501104296
aF-0.640864724496425
aF-0.9392007757743793
aF0.24679333921719998
aF1.2983584756478797
aF-1.276335830210602
aF-0.258195170224252
aF-1.168393103087988
asg11
g1
(g12
g3
Ntp611
Rp612
(dp613
g16
(F10.0
F0.0
F0.0
tp614
sbsbag1
(g2
g3
Ntp615
Rp616
(dp617
g7
(lp618
F-1.017044201261975
aF-0.46815999162435656
aF2.1847229382577957
aF-0.5348235428806708
aF1.131248370843888
aF0.5853207904695262
aF-0.0813502316277954
aF-2.9933290104281185
aF0.3204389582010949
aF-0.016734757317229898
aF-1.0345098608075567
aF0.4212368371540823
aF1.0341309235639071
aF-1.967465015430883
asg9
(lp619
F0.9015333214308857
aF-0.45078793349880975
aF-1.1495580104602654
aF-0.25817822410385227
aF0.9112499785373716
aF-0.5408266170805142
aF1.1177599501104296
aF-0.640864724496425
aF-0.9392007757743793
aF0.24679333921719998
aF1.2983584756478797
aF-1.276335830210602
aF-0.258195170224252
aF-1.168393103087988
asg11
g1
(g12
g3
Ntp620
Rp621
(dp622
g16
g614
sbsbag1
(g2
g3
Ntp623
Rp624
(dp625
g7
(lp626
F-1.017044201261975
aF-0.46815999162435656
aF2.1847229382577957
aF-0.5348235428806708
aF1.131248370843888
aF0.5853207904695262
aF-0.0813502316277954
aF-2.9933290104281185
aF0.3204389582010949
aF-0.016734757317229898
aF-1.0345098608075567
aF0.4212368371540823
aF1.0341309235639071
aF-1.967465015430883
asg9
(lp627
F0.9015333214308857
aF-0.45078793349880975
aF-1.1495580104602654
aF-0.25817822410385227
aF0.9112499785373716
aF-0.5408266170805142
aF1.1177599501104296
aF-0.640864724496425
aF-0.9392007757743793
aF0.24679333921719998
aF1.2983584756478797
aF-1.276335830210602
aF-0.258195170224252
aF-1.168393103087988
asg11
g1
(g12
g3
Ntp628
Rp629
(dp630
g16
(F10.0
F0.0
F0.0
tp631
sbsbag1
(g2
g3
Ntp632
Rp633
(dp634
g7
(lp635
F-1.017044201261975
aF-0.46815999162435656
aF2.1847229382577957
aF-0.5348235428806708
aF1.131248370843888
aF0.5853207904695262
aF-0.0813502316277954
aF-2.9933290104281185
aF0.3204389582010949
aF-0.016734757317229898
aF-1.0345098608075567
aF0.4212368371540823
aF1.0341309235639071
aF-1.967465015430883
asg9
(lp636
F0.9015333214308857
aF-0.45078793349880975
aF-1.1495580104602654
aF-0.25817822410385227
aF0.9112499785373716
aF-0.5408266170805142
aF1.1177599501104296
aF-0.640864724496425
aF-0.9392007757743793
aF0.24679333921719998
aF1.2983584756478797
aF-1.276335830210602
aF-0.258195170224252
aF-1.168393103087988
asg11
g1
(g12
g3
Ntp637
Rp638
(dp639
g16
g631
sbsbag1
(g2
g3
Ntp640
Rp641
(dp642
g7
(lp643
F-1.017044201261975
aF-0.46815999162435656
aF2.1847229382577957
aF-0.5348235428806708
aF1.131248370843888
aF0.5853207904695262
aF-0.0813502316277954
aF-2.9933290104281185
aF0.3204389582010949
aF-0.016734757317229898
aF-1.0345098608075567
aF0.4212368371540823
aF1.0341309235639071
aF-1.967465015430883
asg9
(lp644
F0.9015333214308857
aF-0.45078793349880975
aF-1.1495580104602654
aF-0.25817822410385227
aF0.9112499785373716
aF-0.5408266170805142
aF1.1177599501104296
aF-0.640864724496425
aF-0.9392007757743793
aF0.24679333921719998
aF1.2983584756478797
aF-1.276335830210602
aF-0.258195170224252
aF-1.168393103087988
asg11
g1
(g12
g3
Ntp645
Rp646
(dp647
g16
(F10.0
F0.0
F0.0
tp648
sbsbag1
(g2
g3
Ntp649
Rp650
(dp651
g7
(lp652
F-1.017044201261975
aF-0.46815999162435656
aF2.1847229382577957
aF-0.5348235428806708
aF1.131248370843888
aF0.5853207904695262
aF-0.0813502316277954
aF-2.9933290104281185
aF0.3204389582010949
aF-0.016734757317229898
aF-1.0345098608075567
aF0.4212368371540823
aF1.0341309235639071
aF-1.967465015430883
asg9
(lp653
F0.9015333214308857
aF-0.45078793349880975
aF-1.1495580104602654
aF-0.25817822410385227
aF0.9112499785373716
aF-0.5408266170805142
aF1.1177599501104296
aF-0.640864724496425
aF-0.9392007757743793
aF0.24679333921719998
aF1.2983584756478797
aF-1.276335830210602
aF-0.258195170224252
aF-1.168393103087988
asg11
g1
(g12
g3
Ntp654
Rp655
(dp656
g16
g648
sbsbag1
(g2
g3
Ntp657
Rp658
(dp659
g7
(lp660
F-0.702833269422926
aF-1.0715107385731266
aF0.41329835299571194
aF-0.1724385885524099
aF-1.2240078592372767
aF0.2597314812472761
aF1.3403067088550653
aF0.5203546104831555
aF-0.7940779384930657
aF-0.6290466587193184
aF-1.2074016560681409
aF-0.7464455667077454
aF-0.5152680397671041
aF0.36642189067154307
asg9
(lp661
F0.00636971825064947
aF-0.22054154894474318
aF0.922890021281668
aF0.0807492654559765
aF0.8558072171766159
aF-0.40583883459795206
aF0.323268265646537
aF-0.4111875471052245
aF0.2843030985180125
aF0.6811612445725599
aF0.7183722541549636
aF1.1613675774542283
aF0.47667008507840614
aF0.25164229837063923
asg11
g1
(g12
g3
Ntp662
Rp663
(dp664
g16
(F8.0
F0.0
F0.0
tp665
sbsbag1
(g2
g3
Ntp666
Rp667
(dp668
g7
(lp669
F-0.702833269422926
aF-1.0715107385731266
aF0.41329835299571194
aF-0.5266844180831094
aF-0.6747292830681132
aF0.2597314812472761
aF1.35262854179854
aF0.20652797904388687
aF-1.1961317192373695
aF0.17221262584697095
aF-1.1259966114157496
aF-0.7464455667077454
aF-0.5152680397671041
aF0.36642189067154307
asg9
(lp670
F0.00636971825064947
aF-0.22054154894474318
aF0.38086533222538754
aF0.0807492654559765
aF0.8558072171766159
aF-0.40583883459795206
aF0.323268265646537
aF-0.4111875471052245
aF0.2843030985180125
aF0.6811612445725599
aF1.7041128225044504
aF1.1341853882920738
aF0.47667008507840614
aF0.25164229837063923
asg11
g1
(g12
g3
Ntp671
Rp672
(dp673
g16
(F8.0
F0.0
F0.0
tp674
sbsbag1
(g2
g3
Ntp675
Rp676
(dp677
g7
(lp678
F-1.017044201261975
aF-0.46815999162435656
aF2.1847229382577957
aF-0.5348235428806708
aF1.131248370843888
aF0.5853207904695262
aF-0.0813502316277954
aF-2.9933290104281185
aF0.3204389582010949
aF-0.016734757317229898
aF-1.0345098608075567
aF0.4212368371540823
aF1.0341309235639071
aF-1.967465015430883
asg9
(lp679
F0.9015333214308857
aF-0.45078793349880975
aF-1.1495580104602654
aF-0.25817822410385227
aF0.9112499785373716
aF-0.5408266170805142
aF1.1177599501104296
aF-0.640864724496425
aF-0.9392007757743793
aF0.24679333921719998
aF1.2983584756478797
aF-1.276335830210602
aF-0.258195170224252
aF-1.168393103087988
asg11
g1
(g12
g3
Ntp680
Rp681
(dp682
g16
(F10.0
F0.0
F0.0
tp683
sbsbag1
(g2
g3
Ntp684
Rp685
(dp686
g7
(lp687
F-1.017044201261975
aF-0.46815999162435656
aF2.1847229382577957
aF-0.5348235428806708
aF1.131248370843888
aF0.5853207904695262
aF-0.0813502316277954
aF-2.9933290104281185
aF0.3204389582010949
aF-0.016734757317229898
aF-1.0345098608075567
aF0.4212368371540823
aF1.0341309235639071
aF-1.967465015430883
asg9
(lp688
F0.9015333214308857
aF-0.45078793349880975
aF-1.1495580104602654
aF-0.25817822410385227
aF0.9112499785373716
aF-0.5408266170805142
aF1.1177599501104296
aF-0.640864724496425
aF-0.9392007757743793
aF0.24679333921719998
aF1.2983584756478797
aF-1.276335830210602
aF-0.258195170224252
aF-1.168393103087988
asg11
g1
(g12
g3
Ntp689
Rp690
(dp691
g16
g683
sbsbag1
(g2
g3
Ntp692
Rp693
(dp694
g7
(lp695
F-1.017044201261975
aF-0.46815999162435656
aF2.1847229382577957
aF-0.5348235428806708
aF1.131248370843888
aF0.5853207904695262
aF-0.0813502316277954
aF-2.9933290104281185
aF0.3204389582010949
aF-0.016734757317229898
aF-1.0345098608075567
aF0.4212368371540823
aF1.0341309235639071
aF-1.967465015430883
asg9
(lp696
F0.9015333214308857
aF-0.45078793349880975
aF-1.1495580104602654
aF-0.25817822410385227
aF0.9112499785373716
aF-0.5408266170805142
aF1.1177599501104296
aF-0.640864724496425
aF-0.9392007757743793
aF0.24679333921719998
aF1.2983584756478797
aF-1.276335830210602
aF-0.258195170224252
aF-1.168393103087988
asg11
g1
(g12
g3
Ntp697
Rp698
(dp699
g16
(F10.0
F0.0
F0.0
tp700
sbsbag1
(g2
g3
Ntp701
Rp702
(dp703
g7
(lp704
F-1.017044201261975
aF-0.46815999162435656
aF2.1847229382577957
aF-0.5348235428806708
aF1.131248370843888
aF0.5853207904695262
aF-0.0813502316277954
aF-2.9933290104281185
aF0.3204389582010949
aF-0.016734757317229898
aF-1.0345098608075567
aF0.4212368371540823
aF1.0341309235639071
aF-1.967465015430883
asg9
(lp705
F0.9015333214308857
aF-0.45078793349880975
aF-1.1495580104602654
aF-0.25817822410385227
aF0.9112499785373716
aF-0.5408266170805142
aF1.1177599501104296
aF-0.640864724496425
aF-0.9392007757743793
aF0.24679333921719998
aF1.2983584756478797
aF-1.276335830210602
aF-0.258195170224252
aF-1.168393103087988
asg11
g1
(g12
g3
Ntp706
Rp707
(dp708
g16
g700
sbsbag1
(g2
g3
Ntp709
Rp710
(dp711
g7
(lp712
F-1.017044201261975
aF-0.46815999162435656
aF2.1847229382577957
aF-0.5348235428806708
aF1.131248370843888
aF0.5853207904695262
aF-0.0813502316277954
aF-2.9933290104281185
aF0.3204389582010949
aF-0.016734757317229898
aF-1.0345098608075567
aF0.4212368371540823
aF1.0341309235639071
aF-1.967465015430883
asg9
(lp713
F0.9015333214308857
aF-0.45078793349880975
aF-1.1495580104602654
aF-0.25817822410385227
aF0.9112499785373716
aF-0.5408266170805142
aF1.1177599501104296
aF-0.640864724496425
aF-0.9392007757743793
aF0.24679333921719998
aF1.2983584756478797
aF-1.276335830210602
aF-0.258195170224252
aF-1.168393103087988
asg11
g1
(g12
g3
Ntp714
Rp715
(dp716
g16
(F10.0
F0.0
F0.0
tp717
sbsbag1
(g2
g3
Ntp718
Rp719
(dp720
g7
(lp721
F-1.017044201261975
aF-0.46815999162435656
aF2.1847229382577957
aF-0.5348235428806708
aF1.131248370843888
aF0.5853207904695262
aF-0.0813502316277954
aF-2.9933290104281185
aF0.3204389582010949
aF-0.016734757317229898
aF-1.0345098608075567
aF0.4212368371540823
aF1.0341309235639071
aF-1.967465015430883
asg9
(lp722
F0.9015333214308857
aF-0.45078793349880975
aF-1.1495580104602654
aF-0.25817822410385227
aF0.9112499785373716
aF-0.5408266170805142
aF1.1177599501104296
aF-0.640864724496425
aF-0.9392007757743793
aF0.24679333921719998
aF1.2983584756478797
aF-1.276335830210602
aF-0.258195170224252
aF-1.168393103087988
asg11
g1
(g12
g3
Ntp723
Rp724
(dp725
g16
g717
sbsbag1
(g2
g3
Ntp726
Rp727
(dp728
g7
(lp729
F-1.017044201261975
aF-0.46815999162435656
aF2.1847229382577957
aF-0.5348235428806708
aF1.131248370843888
aF0.5853207904695262
aF-0.0813502316277954
aF-2.9933290104281185
aF0.3204389582010949
aF-0.016734757317229898
aF-1.0345098608075567
aF0.4212368371540823
aF1.0341309235639071
aF-1.967465015430883
asg9
(lp730
F0.9015333214308857
aF-0.45078793349880975
aF-1.1495580104602654
aF-0.25817822410385227
aF0.9112499785373716
aF-0.5408266170805142
aF1.1177599501104296
aF-0.640864724496425
aF-0.9392007757743793
aF0.24679333921719998
aF1.2983584756478797
aF-1.276335830210602
aF-0.258195170224252
aF-1.168393103087988
asg11
g1
(g12
g3
Ntp731
Rp732
(dp733
g16
(F10.0
F0.0
F0.0
tp734
sbsbag1
(g2
g3
Ntp735
Rp736
(dp737
g7
(lp738
F-1.017044201261975
aF-0.46815999162435656
aF2.1847229382577957
aF-0.5348235428806708
aF1.131248370843888
aF0.5853207904695262
aF-0.0813502316277954
aF-2.9933290104281185
aF0.3204389582010949
aF-0.016734757317229898
aF-1.0345098608075567
aF0.4212368371540823
aF1.0341309235639071
aF-1.967465015430883
asg9
(lp739
F0.9015333214308857
aF-0.45078793349880975
aF-1.1495580104602654
aF-0.25817822410385227
aF0.9112499785373716
aF-0.5408266170805142
aF1.1177599501104296
aF-0.640864724496425
aF-0.9392007757743793
aF0.24679333921719998
aF1.2983584756478797
aF-1.276335830210602
aF-0.258195170224252
aF-1.168393103087988
asg11
g1
(g12
g3
Ntp740
Rp741
(dp742
g16
g734
sbsbag1
(g2
g3
Ntp743
Rp744
(dp745
g7
(lp746
F-1.017044201261975
aF-0.46815999162435656
aF2.1847229382577957
aF-0.5348235428806708
aF1.131248370843888
aF0.5853207904695262
aF-0.0813502316277954
aF-2.9933290104281185
aF0.3204389582010949
aF-0.016734757317229898
aF-1.0345098608075567
aF0.4212368371540823
aF1.0341309235639071
aF-1.967465015430883
asg9
(lp747
F0.9015333214308857
aF-0.45078793349880975
aF-1.1495580104602654
aF-0.25817822410385227
aF0.9112499785373716
aF-0.5408266170805142
aF1.1177599501104296
aF-0.640864724496425
aF-0.9392007757743793
aF0.24679333921719998
aF1.2983584756478797
aF-1.276335830210602
aF-0.258195170224252
aF-1.168393103087988
asg11
g1
(g12
g3
Ntp748
Rp749
(dp750
g16
(F10.0
F0.0
F0.0
tp751
sbsbag1
(g2
g3
Ntp752
Rp753
(dp754
g7
(lp755
F-1.017044201261975
aF-0.46815999162435656
aF2.1847229382577957
aF-0.5348235428806708
aF1.131248370843888
aF0.5853207904695262
aF-0.0813502316277954
aF-2.9933290104281185
aF0.3204389582010949
aF-0.016734757317229898
aF-1.0345098608075567
aF0.4212368371540823
aF1.0341309235639071
aF-1.967465015430883
asg9
(lp756
F0.9015333214308857
aF-0.45078793349880975
aF-1.1495580104602654
aF-0.25817822410385227
aF0.9112499785373716
aF-0.5408266170805142
aF1.1177599501104296
aF-0.640864724496425
aF-0.9392007757743793
aF0.24679333921719998
aF1.2983584756478797
aF-1.276335830210602
aF-0.258195170224252
aF-1.168393103087988
asg11
g1
(g12
g3
Ntp757
Rp758
(dp759
g16
g751
sbsbag1
(g2
g3
Ntp760
Rp761
(dp762
g7
(lp763
F-1.017044201261975
aF-0.46815999162435656
aF2.1847229382577957
aF-0.5348235428806708
aF1.131248370843888
aF0.5853207904695262
aF-0.0813502316277954
aF-2.9933290104281185
aF0.3204389582010949
aF-0.016734757317229898
aF-1.0345098608075567
aF0.4212368371540823
aF1.0341309235639071
aF-1.967465015430883
asg9
(lp764
F0.9015333214308857
aF-0.45078793349880975
aF-1.1495580104602654
aF-0.25817822410385227
aF0.9112499785373716
aF-0.5408266170805142
aF1.1177599501104296
aF-0.640864724496425
aF-0.9392007757743793
aF0.24679333921719998
aF1.2983584756478797
aF-1.276335830210602
aF-0.258195170224252
aF-1.168393103087988
asg11
g1
(g12
g3
Ntp765
Rp766
(dp767
g16
(F10.0
F0.0
F0.0
tp768
sbsbag1
(g2
g3
Ntp769
Rp770
(dp771
g7
(lp772
F-1.017044201261975
aF-0.46815999162435656
aF2.1847229382577957
aF-0.5348235428806708
aF1.131248370843888
aF0.5853207904695262
aF-0.0813502316277954
aF-2.9933290104281185
aF0.3204389582010949
aF-0.016734757317229898
aF-1.0345098608075567
aF0.4212368371540823
aF1.0341309235639071
aF-1.967465015430883
asg9
(lp773
F0.9015333214308857
aF-0.45078793349880975
aF-1.1495580104602654
aF-0.25817822410385227
aF0.9112499785373716
aF-0.5408266170805142
aF1.1177599501104296
aF-0.640864724496425
aF-0.9392007757743793
aF0.24679333921719998
aF1.2983584756478797
aF-1.276335830210602
aF-0.258195170224252
aF-1.168393103087988
asg11
g1
(g12
g3
Ntp774
Rp775
(dp776
g16
g768
sbsbag1
(g2
g3
Ntp777
Rp778
(dp779
g7
(lp780
F-1.017044201261975
aF-0.46815999162435656
aF2.1847229382577957
aF-0.5348235428806708
aF1.131248370843888
aF0.5853207904695262
aF-0.0813502316277954
aF-2.9933290104281185
aF0.3204389582010949
aF-0.016734757317229898
aF-1.0345098608075567
aF0.4212368371540823
aF1.0341309235639071
aF-1.967465015430883
asg9
(lp781
F0.9015333214308857
aF-0.45078793349880975
aF-1.1495580104602654
aF-0.25817822410385227
aF0.9112499785373716
aF-0.5408266170805142
aF1.1177599501104296
aF-0.640864724496425
aF-0.9392007757743793
aF0.24679333921719998
aF1.2983584756478797
aF-1.276335830210602
aF-0.258195170224252
aF-1.168393103087988
asg11
g1
(g12
g3
Ntp782
Rp783
(dp784
g16
(F10.0
F0.0
F0.0
tp785
sbsbag1
(g2
g3
Ntp786
Rp787
(dp788
g7
(lp789
F-1.017044201261975
aF-0.46815999162435656
aF2.1847229382577957
aF-0.5348235428806708
aF1.131248370843888
aF0.5853207904695262
aF-0.0813502316277954
aF-2.9933290104281185
aF0.3204389582010949
aF-0.016734757317229898
aF-1.0345098608075567
aF0.4212368371540823
aF1.0341309235639071
aF-1.967465015430883
asg9
(lp790
F0.9015333214308857
aF-0.45078793349880975
aF-1.1495580104602654
aF-0.25817822410385227
aF0.9112499785373716
aF-0.5408266170805142
aF1.1177599501104296
aF-0.640864724496425
aF-0.9392007757743793
aF0.24679333921719998
aF1.2983584756478797
aF-1.276335830210602
aF-0.258195170224252
aF-1.168393103087988
asg11
g1
(g12
g3
Ntp791
Rp792
(dp793
g16
g785
sbsbag1
(g2
g3
Ntp794
Rp795
(dp796
g7
(lp797
F-1.017044201261975
aF-0.46815999162435656
aF2.1847229382577957
aF-0.5348235428806708
aF1.131248370843888
aF0.5853207904695262
aF-0.0813502316277954
aF-2.9933290104281185
aF0.3204389582010949
aF-0.016734757317229898
aF-1.0345098608075567
aF0.4212368371540823
aF1.0341309235639071
aF-1.967465015430883
asg9
(lp798
F0.9015333214308857
aF-0.45078793349880975
aF-1.1495580104602654
aF-0.25817822410385227
aF0.9112499785373716
aF-0.5408266170805142
aF1.1177599501104296
aF-0.640864724496425
aF-0.9392007757743793
aF0.24679333921719998
aF1.2983584756478797
aF-1.276335830210602
aF-0.258195170224252
aF-1.168393103087988
asg11
g1
(g12
g3
Ntp799
Rp800
(dp801
g16
(F10.0
F0.0
F0.0
tp802
sbsbag1
(g2
g3
Ntp803
Rp804
(dp805
g7
(lp806
F-1.017044201261975
aF-0.46815999162435656
aF2.1847229382577957
aF-0.5348235428806708
aF1.131248370843888
aF0.5853207904695262
aF-0.0813502316277954
aF-2.9933290104281185
aF0.3204389582010949
aF-0.016734757317229898
aF-1.0345098608075567
aF0.4212368371540823
aF1.0341309235639071
aF-1.967465015430883
asg9
(lp807
F0.9015333214308857
aF-0.45078793349880975
aF-1.1495580104602654
aF-0.25817822410385227
aF0.9112499785373716
aF-0.5408266170805142
aF1.1177599501104296
aF-0.640864724496425
aF-0.9392007757743793
aF0.24679333921719998
aF1.2983584756478797
aF-1.276335830210602
aF-0.258195170224252
aF-1.168393103087988
asg11
g1
(g12
g3
Ntp808
Rp809
(dp810
g16
g802
sbsbag1
(g2
g3
Ntp811
Rp812
(dp813
g7
(lp814
F-1.017044201261975
aF-0.46815999162435656
aF2.1847229382577957
aF-0.5348235428806708
aF1.131248370843888
aF0.5853207904695262
aF-0.0813502316277954
aF-2.9933290104281185
aF0.3204389582010949
aF-0.016734757317229898
aF-1.0345098608075567
aF0.4212368371540823
aF1.0341309235639071
aF-1.967465015430883
asg9
(lp815
F0.9015333214308857
aF-0.45078793349880975
aF-1.1495580104602654
aF-0.25817822410385227
aF0.9112499785373716
aF-0.5408266170805142
aF1.1177599501104296
aF-0.640864724496425
aF-0.9392007757743793
aF0.24679333921719998
aF1.2983584756478797
aF-1.276335830210602
aF-0.258195170224252
aF-1.168393103087988
asg11
g1
(g12
g3
Ntp816
Rp817
(dp818
g16
(F10.0
F0.0
F0.0
tp819
sbsbag1
(g2
g3
Ntp820
Rp821
(dp822
g7
(lp823
F-1.017044201261975
aF-0.46815999162435656
aF2.1847229382577957
aF-0.5348235428806708
aF1.131248370843888
aF0.5853207904695262
aF-0.0813502316277954
aF-2.9933290104281185
aF0.3204389582010949
aF-0.016734757317229898
aF-1.0345098608075567
aF0.4212368371540823
aF1.0341309235639071
aF-1.967465015430883
asg9
(lp824
F0.9015333214308857
aF-0.45078793349880975
aF-1.1495580104602654
aF-0.25817822410385227
aF0.9112499785373716
aF-0.5408266170805142
aF1.1177599501104296
aF-0.640864724496425
aF-0.9392007757743793
aF0.24679333921719998
aF1.2983584756478797
aF-1.276335830210602
aF-0.258195170224252
aF-1.168393103087988
asg11
g1
(g12
g3
Ntp825
Rp826
(dp827
g16
g819
sbsbag1
(g2
g3
Ntp828
Rp829
(dp830
g7
(lp831
F-1.017044201261975
aF-0.46815999162435656
aF2.1847229382577957
aF-0.5348235428806708
aF1.131248370843888
aF0.5853207904695262
aF-0.0813502316277954
aF-2.9933290104281185
aF0.3204389582010949
aF-0.016734757317229898
aF-1.0345098608075567
aF0.4212368371540823
aF1.0341309235639071
aF-1.967465015430883
asg9
(lp832
F0.9015333214308857
aF-0.45078793349880975
aF-1.1495580104602654
aF-0.25817822410385227
aF0.9112499785373716
aF-0.5408266170805142
aF1.1177599501104296
aF-0.640864724496425
aF-0.9392007757743793
aF0.24679333921719998
aF1.2983584756478797
aF-1.276335830210602
aF-0.258195170224252
aF-1.168393103087988
asg11
g1
(g12
g3
Ntp833
Rp834
(dp835
g16
(F10.0
F0.0
F0.0
tp836
sbsbag1
(g2
g3
Ntp837
Rp838
(dp839
g7
(lp840
F-1.017044201261975
aF-0.46815999162435656
aF2.1847229382577957
aF-0.5348235428806708
aF1.131248370843888
aF0.5853207904695262
aF-0.0813502316277954
aF-2.9933290104281185
aF0.3204389582010949
aF-0.016734757317229898
aF-1.0345098608075567
aF0.4212368371540823
aF1.0341309235639071
aF-1.967465015430883
asg9
(lp841
F0.9015333214308857
aF-0.45078793349880975
aF-1.1495580104602654
aF-0.25817822410385227
aF0.9112499785373716
aF-0.5408266170805142
aF1.1177599501104296
aF-0.640864724496425
aF-0.9392007757743793
aF0.24679333921719998
aF1.2983584756478797
aF-1.276335830210602
aF-0.258195170224252
aF-1.168393103087988
asg11
g1
(g12
g3
Ntp842
Rp843
(dp844
g16
g836
sbsbag1
(g2
g3
Ntp845
Rp846
(dp847
g7
(lp848
F-1.017044201261975
aF-0.46815999162435656
aF2.1847229382577957
aF-0.5348235428806708
aF1.131248370843888
aF0.5853207904695262
aF-0.0813502316277954
aF-2.9933290104281185
aF0.3204389582010949
aF-0.016734757317229898
aF-1.0345098608075567
aF0.4212368371540823
aF1.0341309235639071
aF-1.967465015430883
asg9
(lp849
F0.9015333214308857
aF-0.45078793349880975
aF-1.1495580104602654
aF-0.25817822410385227
aF0.9112499785373716
aF-0.5408266170805142
aF1.1177599501104296
aF-0.640864724496425
aF-0.9392007757743793
aF0.24679333921719998
aF1.2983584756478797
aF-1.276335830210602
aF-0.258195170224252
aF-1.168393103087988
asg11
g1
(g12
g3
Ntp850
Rp851
(dp852
g16
(F10.0
F0.0
F0.0
tp853
sbsbag1
(g2
g3
Ntp854
Rp855
(dp856
g7
(lp857
F-1.017044201261975
aF-0.46815999162435656
aF2.1847229382577957
aF-0.5348235428806708
aF1.131248370843888
aF0.5853207904695262
aF-0.0813502316277954
aF-2.9933290104281185
aF0.3204389582010949
aF-0.016734757317229898
aF-1.0345098608075567
aF0.4212368371540823
aF1.0341309235639071
aF-1.967465015430883
asg9
(lp858
F0.9015333214308857
aF-0.45078793349880975
aF-1.1495580104602654
aF-0.25817822410385227
aF0.9112499785373716
aF-0.5408266170805142
aF1.1177599501104296
aF-0.640864724496425
aF-0.9392007757743793
aF0.24679333921719998
aF1.2983584756478797
aF-1.276335830210602
aF-0.258195170224252
aF-1.168393103087988
asg11
g1
(g12
g3
Ntp859
Rp860
(dp861
g16
g853
sbsbag1
(g2
g3
Ntp862
Rp863
(dp864
g7
(lp865
F-1.017044201261975
aF-0.46815999162435656
aF2.1847229382577957
aF-0.5348235428806708
aF1.131248370843888
aF0.5853207904695262
aF-0.0813502316277954
aF-2.9933290104281185
aF0.3204389582010949
aF-0.016734757317229898
aF-1.0345098608075567
aF0.4212368371540823
aF1.0341309235639071
aF-1.967465015430883
asg9
(lp866
F0.9015333214308857
aF-0.45078793349880975
aF-1.1495580104602654
aF-0.25817822410385227
aF0.9112499785373716
aF-0.5408266170805142
aF1.1177599501104296
aF-0.640864724496425
aF-0.9392007757743793
aF0.24679333921719998
aF1.2983584756478797
aF-1.276335830210602
aF-0.258195170224252
aF-1.168393103087988
asg11
g1
(g12
g3
Ntp867
Rp868
(dp869
g16
(F10.0
F0.0
F0.0
tp870
sbsbag1
(g2
g3
Ntp871
Rp872
(dp873
g7
(lp874
F-1.017044201261975
aF-0.46815999162435656
aF2.1847229382577957
aF-0.5348235428806708
aF1.131248370843888
aF0.5853207904695262
aF-0.0813502316277954
aF-2.9933290104281185
aF0.3204389582010949
aF-0.016734757317229898
aF-1.0345098608075567
aF0.4212368371540823
aF1.0341309235639071
aF-1.967465015430883
asg9
(lp875
F0.9015333214308857
aF-0.45078793349880975
aF-1.1495580104602654
aF-0.25817822410385227
aF0.9112499785373716
aF-0.5408266170805142
aF1.1177599501104296
aF-0.640864724496425
aF-0.9392007757743793
aF0.24679333921719998
aF1.2983584756478797
aF-1.276335830210602
aF-0.258195170224252
aF-1.168393103087988
asg11
g1
(g12
g3
Ntp876
Rp877
(dp878
g16
g870
sbsbag1
(g2
g3
Ntp879
Rp880
(dp881
g7
(lp882
F-1.017044201261975
aF-0.46815999162435656
aF2.1847229382577957
aF-0.5348235428806708
aF1.131248370843888
aF0.5853207904695262
aF-0.0813502316277954
aF-2.9933290104281185
aF0.3204389582010949
aF-0.016734757317229898
aF-1.0345098608075567
aF0.4212368371540823
aF1.0341309235639071
aF-1.967465015430883
asg9
(lp883
F0.9015333214308857
aF-0.45078793349880975
aF-1.1495580104602654
aF-0.25817822410385227
aF0.9112499785373716
aF-0.5408266170805142
aF1.1177599501104296
aF-0.640864724496425
aF-0.9392007757743793
aF0.24679333921719998
aF1.2983584756478797
aF-1.276335830210602
aF-0.258195170224252
aF-1.168393103087988
asg11
g1
(g12
g3
Ntp884
Rp885
(dp886
g16
(F10.0
F0.0
F0.0
tp887
sbsbag1
(g2
g3
Ntp888
Rp889
(dp890
g7
(lp891
F-1.017044201261975
aF-0.46815999162435656
aF2.1847229382577957
aF-0.5348235428806708
aF1.131248370843888
aF0.5853207904695262
aF-0.0813502316277954
aF-2.9933290104281185
aF0.3204389582010949
aF-0.016734757317229898
aF-1.0345098608075567
aF0.4212368371540823
aF1.0341309235639071
aF-1.967465015430883
asg9
(lp892
F0.9015333214308857
aF-0.45078793349880975
aF-1.1495580104602654
aF-0.25817822410385227
aF0.9112499785373716
aF-0.5408266170805142
aF1.1177599501104296
aF-0.640864724496425
aF-0.9392007757743793
aF0.24679333921719998
aF1.2983584756478797
aF-1.276335830210602
aF-0.258195170224252
aF-1.168393103087988
asg11
g1
(g12
g3
Ntp893
Rp894
(dp895
g16
g887
sbsbag1
(g2
g3
Ntp896
Rp897
(dp898
g7
(lp899
F-1.017044201261975
aF-0.46815999162435656
aF2.1847229382577957
aF-0.5348235428806708
aF1.131248370843888
aF0.5853207904695262
aF-0.0813502316277954
aF-2.9933290104281185
aF0.3204389582010949
aF-0.016734757317229898
aF-1.0345098608075567
aF0.4212368371540823
aF1.0341309235639071
aF-1.967465015430883
asg9
(lp900
F0.9015333214308857
aF-0.45078793349880975
aF-1.1495580104602654
aF-0.25817822410385227
aF0.9112499785373716
aF-0.5408266170805142
aF1.1177599501104296
aF-0.640864724496425
aF-0.9392007757743793
aF0.24679333921719998
aF1.2983584756478797
aF-1.276335830210602
aF-0.258195170224252
aF-1.168393103087988
asg11
g1
(g12
g3
Ntp901
Rp902
(dp903
g16
(F10.0
F0.0
F0.0
tp904
sbsbag1
(g2
g3
Ntp905
Rp906
(dp907
g7
(lp908
F-1.017044201261975
aF-0.46815999162435656
aF2.1847229382577957
aF-0.5348235428806708
aF1.131248370843888
aF0.5853207904695262
aF-0.0813502316277954
aF-2.9933290104281185
aF0.3204389582010949
aF-0.016734757317229898
aF-1.0345098608075567
aF0.4212368371540823
aF1.0341309235639071
aF-1.967465015430883
asg9
(lp909
F0.9015333214308857
aF-0.45078793349880975
aF-1.1495580104602654
aF-0.25817822410385227
aF0.9112499785373716
aF-0.5408266170805142
aF1.1177599501104296
aF-0.640864724496425
aF-0.9392007757743793
aF0.24679333921719998
aF1.2983584756478797
aF-1.276335830210602
aF-0.258195170224252
aF-1.168393103087988
asg11
g1
(g12
g3
Ntp910
Rp911
(dp912
g16
g904
sbsbag1
(g2
g3
Ntp913
Rp914
(dp915
g7
(lp916
F-1.017044201261975
aF-0.46815999162435656
aF2.1847229382577957
aF-0.5348235428806708
aF1.131248370843888
aF0.5853207904695262
aF-0.0813502316277954
aF-2.9933290104281185
aF0.3204389582010949
aF-0.016734757317229898
aF-1.0345098608075567
aF0.4212368371540823
aF1.0341309235639071
aF-1.967465015430883
asg9
(lp917
F0.9015333214308857
aF-0.45078793349880975
aF-1.1495580104602654
aF-0.25817822410385227
aF0.9112499785373716
aF-0.5408266170805142
aF1.1177599501104296
aF-0.640864724496425
aF-0.9392007757743793
aF0.24679333921719998
aF1.2983584756478797
aF-1.276335830210602
aF-0.258195170224252
aF-1.168393103087988
asg11
g1
(g12
g3
Ntp918
Rp919
(dp920
g16
(F10.0
F0.0
F0.0
tp921
sbsbag1
(g2
g3
Ntp922
Rp923
(dp924
g7
(lp925
F-1.017044201261975
aF-0.46815999162435656
aF2.1847229382577957
aF-0.5348235428806708
aF1.131248370843888
aF0.5853207904695262
aF-0.0813502316277954
aF-2.9933290104281185
aF0.3204389582010949
aF-0.016734757317229898
aF-1.0345098608075567
aF0.4212368371540823
aF1.0341309235639071
aF-1.967465015430883
asg9
(lp926
F0.9015333214308857
aF-0.45078793349880975
aF-1.1495580104602654
aF-0.25817822410385227
aF0.9112499785373716
aF-0.5408266170805142
aF1.1177599501104296
aF-0.640864724496425
aF-0.9392007757743793
aF0.24679333921719998
aF1.2983584756478797
aF-1.276335830210602
aF-0.258195170224252
aF-1.168393103087988
asg11
g1
(g12
g3
Ntp927
Rp928
(dp929
g16
g921
sbsbag1
(g2
g3
Ntp930
Rp931
(dp932
g7
(lp933
F-1.017044201261975
aF-0.46815999162435656
aF2.1847229382577957
aF-0.5348235428806708
aF1.131248370843888
aF0.5853207904695262
aF-0.0813502316277954
aF-2.9933290104281185
aF0.3204389582010949
aF-0.016734757317229898
aF-1.0345098608075567
aF0.4212368371540823
aF1.0341309235639071
aF-1.967465015430883
asg9
(lp934
F0.9015333214308857
aF-0.45078793349880975
aF-1.1495580104602654
aF-0.25817822410385227
aF0.9112499785373716
aF-0.5408266170805142
aF1.1177599501104296
aF-0.640864724496425
aF-0.9392007757743793
aF0.24679333921719998
aF1.2983584756478797
aF-1.276335830210602
aF-0.258195170224252
aF-1.168393103087988
asg11
g1
(g12
g3
Ntp935
Rp936
(dp937
g16
(F10.0
F0.0
F0.0
tp938
sbsbag1
(g2
g3
Ntp939
Rp940
(dp941
g7
(lp942
F-1.017044201261975
aF-0.46815999162435656
aF2.1847229382577957
aF-0.5348235428806708
aF1.131248370843888
aF0.5853207904695262
aF-0.0813502316277954
aF-2.9933290104281185
aF0.3204389582010949
aF-0.016734757317229898
aF-1.0345098608075567
aF0.4212368371540823
aF1.0341309235639071
aF-1.967465015430883
asg9
(lp943
F0.9015333214308857
aF-0.45078793349880975
aF-1.1495580104602654
aF-0.25817822410385227
aF0.9112499785373716
aF-0.5408266170805142
aF1.1177599501104296
aF-0.640864724496425
aF-0.9392007757743793
aF0.24679333921719998
aF1.2983584756478797
aF-1.276335830210602
aF-0.258195170224252
aF-1.168393103087988
asg11
g1
(g12
g3
Ntp944
Rp945
(dp946
g16
g938
sbsbag1
(g2
g3
Ntp947
Rp948
(dp949
g7
(lp950
F-1.017044201261975
aF-0.46815999162435656
aF2.1847229382577957
aF-0.5348235428806708
aF1.131248370843888
aF0.5853207904695262
aF-0.0813502316277954
aF-2.9933290104281185
aF0.3204389582010949
aF-0.016734757317229898
aF-1.0345098608075567
aF0.4212368371540823
aF1.0341309235639071
aF-1.967465015430883
asg9
(lp951
F0.9015333214308857
aF-0.45078793349880975
aF-1.1495580104602654
aF-0.25817822410385227
aF0.9112499785373716
aF-0.5408266170805142
aF1.1177599501104296
aF-0.640864724496425
aF-0.9392007757743793
aF0.24679333921719998
aF1.2983584756478797
aF-1.276335830210602
aF-0.258195170224252
aF-1.168393103087988
asg11
g1
(g12
g3
Ntp952
Rp953
(dp954
g16
(F10.0
F0.0
F0.0
tp955
sbsbag1
(g2
g3
Ntp956
Rp957
(dp958
g7
(lp959
F-1.017044201261975
aF-0.46815999162435656
aF2.1847229382577957
aF-0.5348235428806708
aF1.131248370843888
aF0.5853207904695262
aF-0.0813502316277954
aF-2.9933290104281185
aF0.3204389582010949
aF-0.016734757317229898
aF-1.0345098608075567
aF0.4212368371540823
aF1.0341309235639071
aF-1.967465015430883
asg9
(lp960
F0.9015333214308857
aF-0.45078793349880975
aF-1.1495580104602654
aF-0.25817822410385227
aF0.9112499785373716
aF-0.5408266170805142
aF1.1177599501104296
aF-0.640864724496425
aF-0.9392007757743793
aF0.24679333921719998
aF1.2983584756478797
aF-1.276335830210602
aF-0.258195170224252
aF-1.168393103087988
asg11
g1
(g12
g3
Ntp961
Rp962
(dp963
g16
g955
sbsbag1
(g2
g3
Ntp964
Rp965
(dp966
g7
(lp967
F-1.017044201261975
aF-0.46815999162435656
aF2.1847229382577957
aF-0.5348235428806708
aF1.131248370843888
aF0.5853207904695262
aF-0.0813502316277954
aF-2.9933290104281185
aF0.3204389582010949
aF-0.016734757317229898
aF-1.0345098608075567
aF0.4212368371540823
aF1.0341309235639071
aF-1.967465015430883
asg9
(lp968
F0.9015333214308857
aF-0.45078793349880975
aF-1.1495580104602654
aF-0.25817822410385227
aF0.9112499785373716
aF-0.5408266170805142
aF1.1177599501104296
aF-0.640864724496425
aF-0.9392007757743793
aF0.24679333921719998
aF1.2983584756478797
aF-1.276335830210602
aF-0.258195170224252
aF-1.168393103087988
asg11
g1
(g12
g3
Ntp969
Rp970
(dp971
g16
(F10.0
F0.0
F0.0
tp972
sbsbag1
(g2
g3
Ntp973
Rp974
(dp975
g7
(lp976
F-1.017044201261975
aF-0.46815999162435656
aF2.1847229382577957
aF-0.5348235428806708
aF1.131248370843888
aF0.5853207904695262
aF-0.0813502316277954
aF-2.9933290104281185
aF0.3204389582010949
aF-0.016734757317229898
aF-1.0345098608075567
aF0.4212368371540823
aF1.0341309235639071
aF-1.967465015430883
asg9
(lp977
F0.9015333214308857
aF-0.45078793349880975
aF-1.1495580104602654
aF-0.25817822410385227
aF0.9112499785373716
aF-0.5408266170805142
aF1.1177599501104296
aF-0.640864724496425
aF-0.9392007757743793
aF0.24679333921719998
aF1.2983584756478797
aF-1.276335830210602
aF-0.258195170224252
aF-1.168393103087988
asg11
g1
(g12
g3
Ntp978
Rp979
(dp980
g16
g972
sbsbag1
(g2
g3
Ntp981
Rp982
(dp983
g7
(lp984
F-1.017044201261975
aF-0.46815999162435656
aF2.1847229382577957
aF-0.5348235428806708
aF1.131248370843888
aF0.5853207904695262
aF-0.0813502316277954
aF-2.9933290104281185
aF0.3204389582010949
aF-0.016734757317229898
aF-1.0345098608075567
aF0.4212368371540823
aF1.0341309235639071
aF-1.967465015430883
asg9
(lp985
F0.9015333214308857
aF-0.45078793349880975
aF-1.1495580104602654
aF-0.25817822410385227
aF0.9112499785373716
aF-0.5408266170805142
aF1.1177599501104296
aF-0.640864724496425
aF-0.9392007757743793
aF0.24679333921719998
aF1.2983584756478797
aF-1.276335830210602
aF-0.258195170224252
aF-1.168393103087988
asg11
g1
(g12
g3
Ntp986
Rp987
(dp988
g16
(F10.0
F0.0
F0.0
tp989
sbsbag1
(g2
g3
Ntp990
Rp991
(dp992
g7
(lp993
F-1.017044201261975
aF-0.46815999162435656
aF2.1847229382577957
aF-0.5348235428806708
aF1.131248370843888
aF0.5853207904695262
aF-0.0813502316277954
aF-2.9933290104281185
aF0.3204389582010949
aF-0.016734757317229898
aF-1.0345098608075567
aF0.4212368371540823
aF1.0341309235639071
aF-1.967465015430883
asg9
(lp994
F0.9015333214308857
aF-0.45078793349880975
aF-1.1495580104602654
aF-0.25817822410385227
aF0.9112499785373716
aF-0.5408266170805142
aF1.1177599501104296
aF-0.640864724496425
aF-0.9392007757743793
aF0.24679333921719998
aF1.2983584756478797
aF-1.276335830210602
aF-0.258195170224252
aF-1.168393103087988
asg11
g1
(g12
g3
Ntp995
Rp996
(dp997
g16
g989
sbsba.