(lp0
ccopy_reg
_reconstructor
p1
(cdeap.creator
DefenseTeam
p2
c__builtin__
object
p3
Ntp4
Rp5
(dp6
S'offense'
p7
(lp8
F-0.5905196159769133
aF0.2504012638608757
aF0.3357774832438587
aF0.8605379125744014
aF0.17785287459207744
aF0.313468095513715
aF0.6633024755098038
aF0.4163907048476103
aF0.4418922373490879
aF-0.7473198194279808
aF-0.9117890295016853
aF-0.7701277374051086
aF-0.87719537659865
aF-0.6284268075333912
asS'defense'
p9
(lp10
F-0.06114530769494941
aF0.9121924708454048
aF0.41386983489611606
aF0.18985212736873536
aF0.042470825091085795
aF0.39843025640439145
aF0.07312524171835522
aF0.5330406991664152
aF0.8554553626358401
aF-0.7041050037523315
aF-0.9777096932855929
aF-0.0979015239394857
aF-0.7653317097093955
aF-0.1770000634617297
asS'fitness'
p11
g1
(cdeap.creator
EFoodMin
p12
g3
Ntp13
Rp14
(dp15
S'wvalues'
p16
(F-0.0
F0.0
F-1.0
tp17
sbsbag1
(g2
g3
Ntp18
Rp19
(dp20
g7
(lp21
F-0.5905196159769133
aF0.2504012638608757
aF0.3357774832438587
aF0.8605379125744014
aF0.17785287459207744
aF0.313468095513715
aF0.6633024755098038
aF0.4163907048476103
aF0.4418922373490879
aF-0.7473198194279808
aF-0.9117890295016853
aF-0.7701277374051086
aF-0.87719537659865
aF-0.6284268075333912
asg9
(lp22
F-0.06114530769494941
aF0.9121924708454048
aF0.41386983489611606
aF0.18985212736873536
aF0.042470825091085795
aF0.39843025640439145
aF0.07312524171835522
aF0.5330406991664152
aF0.8554553626358401
aF-0.7041050037523315
aF-0.9777096932855929
aF-0.0979015239394857
aF-0.7653317097093955
aF-0.1770000634617297
asg11
g1
(g12
g3
Ntp23
Rp24
(dp25
g16
g17
sbsbag1
(g2
g3
Ntp26
Rp27
(dp28
g7
(lp29
F-0.5905196159769133
aF0.2504012638608757
aF0.3357774832438587
aF0.8605379125744014
aF0.17785287459207744
aF0.313468095513715
aF0.6633024755098038
aF0.4163907048476103
aF0.4418922373490879
aF-0.7473198194279808
aF-0.9117890295016853
aF-0.7701277374051086
aF-0.87719537659865
aF-0.6284268075333912
asg9
(lp30
F-0.06114530769494941
aF0.9121924708454048
aF0.41386983489611606
aF0.18985212736873536
aF0.042470825091085795
aF0.39843025640439145
aF0.07312524171835522
aF0.5330406991664152
aF0.8554553626358401
aF-0.7041050037523314
aF-0.9777096932855929
aF-0.09790152393948569
aF-0.7653317097093955
aF-0.1770000634617297
asg11
g1
(g12
g3
Ntp31
Rp32
(dp33
g16
(F-0.0
F0.0
F-1.0
tp34
sbsbag1
(g2
g3
Ntp35
Rp36
(dp37
g7
(lp38
F-0.5905196159769133
aF0.2504012638608757
aF0.3357774832438587
aF1.1223910536027788
aF0.17785287459207744
aF0.313468095513715
aF1.1110492166233488
aF0.4163907048476103
aF0.4418922373490879
aF-0.6502871904256949
aF-0.9117890295016853
aF-0.7701277374051085
aF-1.5968628997119327
aF-1.229994590696141
asg9
(lp39
F-0.06114530769494941
aF0.8195935441440598
aF0.41386983489611606
aF-0.3144991353975418
aF0.43166336404243977
aF0.39843025640439145
aF0.07312524171835522
aF0.36428361900232675
aF0.06664598101497088
aF-0.44314778394590426
aF-0.9777096932855929
aF0.5023123741532494
aF-0.7653317097093955
aF-0.1770000634617297
asg11
g1
(g12
g3
Ntp40
Rp41
(dp42
g16
(F-0.0
F0.0
F-2.0
tp43
sbsbag1
(g2
g3
Ntp44
Rp45
(dp46
g7
(lp47
F-0.5905196159769133
aF0.2504012638608757
aF1.0233089996389877
aF0.8605379125744014
aF0.17785287459207744
aF0.313468095513715
aF0.11956609736924895
aF0.4163907048476103
aF0.6135342031480268
aF-0.7473198194279808
aF-1.4643100522183372
aF-1.1963702799317704
aF-1.3078128089422911
aF-0.6284268075333912
asg9
(lp48
F-0.06114530769494941
aF0.9121924708454048
aF0.5636449646467248
aF0.5637482435020478
aF-0.22679547097172054
aF0.39843025640439145
aF0.07312524171835522
aF0.5330406991664152
aF0.8554553626358401
aF-0.7041050037523314
aF-0.9403961988844473
aF0.12344600226800885
aF-0.7653317097093955
aF-0.1770000634617297
asg11
g1
(g12
g3
Ntp49
Rp50
(dp51
g16
(F-0.0
F0.0
F-2.0
tp52
sbsbag1
(g2
g3
Ntp53
Rp54
(dp55
g7
(lp56
F-0.5905196159769133
aF0.2504012638608757
aF0.3357774832438587
aF0.8605379125744014
aF0.17785287459207744
aF0.313468095513715
aF0.6633024755098038
aF0.4163907048476103
aF0.4418922373490879
aF-0.7473198194279808
aF-0.9117890295016853
aF-0.7701277374051086
aF-0.87719537659865
aF-0.6284268075333912
asg9
(lp57
F-0.06114530769494941
aF0.9121924708454048
aF0.41386983489611606
aF0.18985212736873536
aF0.042470825091085795
aF0.39843025640439145
aF0.07312524171835522
aF0.5330406991664152
aF0.8554553626358401
aF-0.7041050037523315
aF-0.9777096932855929
aF-0.0979015239394857
aF-0.7653317097093955
aF-0.1770000634617297
asg11
g1
(g12
g3
Ntp58
Rp59
(dp60
g16
g17
sbsbag1
(g2
g3
Ntp61
Rp62
(dp63
g7
(lp64
F-0.5905196159769133
aF-0.08472752738372637
aF0.05780681735781562
aF0.7420072728370801
aF-0.1798199850899156
aF0.24594442999273325
aF0.6633024755098038
aF0.4163907048476103
aF0.4418922373490879
aF-0.7473198194279808
aF-0.9117890295016853
aF-1.5393243556801257
aF-0.87719537659865
aF-0.3369105489623451
asg9
(lp65
F-0.06114530769494941
aF0.9121924708454048
aF0.41386983489611606
aF0.20467292202581083
aF0.042470825091085795
aF0.046197411037546265
aF-0.2368944925625433
aF0.5330406991664152
aF0.9580620093590099
aF-0.3420687694275054
aF-0.9680485580500255
aF-0.21138875053187173
aF-0.7421807267849991
aF-0.1770000634617297
asg11
g1
(g12
g3
Ntp66
Rp67
(dp68
g16
(F-0.0
F0.0
F-1.0
tp69
sbsbag1
(g2
g3
Ntp70
Rp71
(dp72
g7
(lp73
F-0.5905196159769133
aF0.3755729446564331
aF0.3357774832438587
aF1.7605958176714405
aF-0.5582409235905065
aF0.313468095513715
aF1.0377273911125924
aF0.4163907048476103
aF0.4418922373490879
aF-1.0048494512143318
aF-0.9117890295016853
aF0.12991418631435048
aF-0.87719537659865
aF-0.6284268075333912
asg9
(lp74
F-0.06114530769494941
aF0.9121924708454048
aF0.9112185442983799
aF0.19660014609015702
aF0.17488120234230553
aF0.23043756647064673
aF0.3519024667195919
aF1.075417930372797
aF-0.18932118175532803
aF-0.6433152478633613
aF-0.9796941184644887
aF0.593601306103203
aF-0.7591887710653769
aF-0.1770000634617297
asg11
g1
(g12
g3
Ntp75
Rp76
(dp77
g16
(F-0.0
F0.0
F-1.0
tp78
sbsbag1
(g2
g3
Ntp79
Rp80
(dp81
g7
(lp82
F-0.1394041287994946
aF-0.1748962994710827
aF1.0388404552263677
aF0.7640989496974435
aF0.15510037693276582
aF0.6665461898062822
aF0.7561471181371262
aF0.2596315760208492
aF-0.6427545196211872
aF-0.6475565804542573
aF-1.1043563705001656
aF-0.8298732216455564
aF-1.1830616944897838
aF-0.7302518205428943
asg9
(lp83
F-0.06114530769494941
aF0.825022597669683
aF0.4610649423187808
aF0.6228695900617913
aF0.13775881787682867
aF0.39851920419708686
aF-1.223198894515454
aF0.6508477774747848
aF0.8291393916633665
aF-1.1668109240172329
aF-0.9873936473197769
aF-0.07360561529902229
aF-0.011266735679630394
aF-0.8675748854156314
asg11
g1
(g12
g3
Ntp84
Rp85
(dp86
g16
(F-0.0
F0.0
F-1.0
tp87
sbsbag1
(g2
g3
Ntp88
Rp89
(dp90
g7
(lp91
F-0.9992133954338271
aF0.5610812482443767
aF0.20613590038747176
aF0.9502663167682041
aF0.8870554356457333
aF0.7647807332576539
aF0.49824246188097243
aF0.17000963638582356
aF0.9677064988749313
aF-0.6951910889493791
aF-0.28788852080275285
aF-0.8700656041564989
aF-0.2973437183717079
aF-0.36943161462909013
asg9
(lp92
F-0.0129789448869847
aF0.6319200233493109
aF0.7734853798898125
aF0.8567697049544847
aF0.7646686813456375
aF0.4963889886476438
aF0.7741775542231344
aF0.890651451770024
aF0.4851453000568028
aF-0.01267577759714933
aF-0.39560798085935733
aF-0.07791493881960354
aF-0.25474896603752806
aF-0.14320780448253223
asg11
g1
(g12
g3
Ntp93
Rp94
(dp95
g16
(F-0.0
F0.0
F-1.0
tp96
sbsbag1
(g2
g3
Ntp97
Rp98
(dp99
g7
(lp100
F-0.9992133954338271
aF0.5610812482443767
aF0.20613590038747176
aF0.9502663167682041
aF0.8870554356457333
aF0.7647807332576539
aF0.49824246188097243
aF0.17000963638582356
aF0.9677064988749313
aF-0.6951910889493791
aF-0.28788852080275285
aF-0.8700656041564989
aF-0.2973437183717079
aF-0.36943161462909013
asg9
(lp101
F-0.0129789448869847
aF0.6319200233493109
aF0.7734853798898125
aF0.8567697049544847
aF0.7646686813456375
aF0.4963889886476438
aF0.7741775542231344
aF0.890651451770024
aF0.4851453000568028
aF-0.01267577759714933
aF-0.39560798085935733
aF-0.07791493881960354
aF-0.25474896603752806
aF-0.14320780448253223
asg11
g1
(g12
g3
Ntp102
Rp103
(dp104
g16
g96
sbsbag1
(g2
g3
Ntp105
Rp106
(dp107
g7
(lp108
F-0.8917618150396642
aF1.2728758823619835
aF-0.09917653138720323
aF0.9502663167682041
aF0.8870554356457333
aF0.4740246304754897
aF0.49824246188097243
aF0.014301717470438985
aF0.9677064988749313
aF-0.6951910889493791
aF-0.28788852080275285
aF-0.0391152694044552
aF-0.2973437183717079
aF-0.36943161462909013
asg9
(lp109
F-0.0129789448869847
aF0.6319200233493109
aF0.9319057648129732
aF0.8567697049544847
aF0.7646686813456375
aF0.4963889886476438
aF0.7741775542231344
aF0.39294374690061734
aF-0.35852929799398403
aF0.016550919156350423
aF-0.39560798085935733
aF-0.37481080806271355
aF-0.1265176701115305
aF-0.14320780448253223
asg11
g1
(g12
g3
Ntp110
Rp111
(dp112
g16
(F-0.0
F0.0
F-1.0
tp113
sbsbag1
(g2
g3
Ntp114
Rp115
(dp116
g7
(lp117
F-0.9992133954338271
aF0.5610812482443767
aF0.20613590038747176
aF0.9502663167682041
aF1.1732689274351675
aF0.7647807332576539
aF0.49824246188097243
aF0.17000963638582356
aF1.1989009780960191
aF-0.6951910889493791
aF-0.28788852080275285
aF-0.8700656041564989
aF0.13170269236490145
aF-0.36943161462909013
asg9
(lp118
F-0.0129789448869847
aF0.22330410364835895
aF0.7734853798898125
aF0.8567697049544847
aF0.7646686813456375
aF-0.0939831406073256
aF0.7741775542231344
aF0.890651451770024
aF-0.008335910735065788
aF-0.01267577759714933
aF-0.3180949727586454
aF-0.07791493881960354
aF-0.25474896603752806
aF0.32452083945439913
asg11
g1
(g12
g3
Ntp119
Rp120
(dp121
g16
(F-0.0
F0.0
F-1.0
tp122
sbsbag1
(g2
g3
Ntp123
Rp124
(dp125
g7
(lp126
F-0.9992133954338271
aF0.5610812482443767
aF0.20613590038747176
aF0.9502663167682041
aF0.8870554356457333
aF0.7647807332576539
aF0.49824246188097243
aF0.17000963638582356
aF0.9677064988749313
aF-0.6951910889493791
aF-0.28788852080275285
aF-0.8700656041564989
aF-0.2973437183717079
aF-0.36943161462909013
asg9
(lp127
F-0.0129789448869847
aF0.6319200233493109
aF0.7734853798898125
aF0.8567697049544847
aF0.7646686813456375
aF0.4963889886476438
aF0.7741775542231344
aF0.890651451770024
aF0.4851453000568028
aF-0.01267577759714933
aF-0.39560798085935733
aF-0.07791493881960354
aF-0.25474896603752806
aF-0.14320780448253223
asg11
g1
(g12
g3
Ntp128
Rp129
(dp130
g16
g96
sbsbag1
(g2
g3
Ntp131
Rp132
(dp133
g7
(lp134
F-0.8822127806031936
aF-0.35819157048271927
aF-0.8410375951670056
aF1.768641699601632
aF0.8618901776345824
aF0.539681788021531
aF0.4037479319464884
aF-0.8902298865236423
aF0.9677064988749313
aF-0.3028173856866764
aF-0.29762259558813686
aF-0.39629489757047504
aF-0.2973437183717079
aF-0.36943161462909013
asg9
(lp135
F-0.0129789448869847
aF0.6319200233493109
aF0.8474254278770897
aF0.9431956106578917
aF0.6349755375194384
aF0.49473543644219603
aF1.4784258303639555
aF1.7290171476835121
aF-0.3586686079322004
aF0.016868323240109475
aF-0.39560798085935733
aF-0.16253351021537732
aF1.0657552971281976
aF-0.5755932243475125
asg11
g1
(g12
g3
Ntp136
Rp137
(dp138
g16
(F-0.0
F0.0
F-1.0
tp139
sbsbag1
(g2
g3
Ntp140
Rp141
(dp142
g7
(lp143
F-1.0239153800319771
aF-0.2947186281821124
aF0.15187999549375894
aF0.9502663167682041
aF0.844450276834642
aF0.21848109584494102
aF0.001896419335822297
aF0.8120618249087419
aF1.0289375890930281
aF-1.6561864062996055
aF-0.05471618289456695
aF0.4451231140646651
aF-1.0545459068137288
aF-0.36943161462909013
asg9
(lp144
F-0.0129789448869847
aF0.09851133222576225
aF0.4081933394392125
aF1.2608099033580256
aF0.7646686813456375
aF0.18002004616940132
aF-0.3053004970130029
aF1.6577879148084387
aF-0.5777051963130048
aF-0.3543946405370743
aF-1.286296720229347
aF-0.2588278297240873
aF-0.21494770119405868
aF-0.568432668787953
asg11
g1
(g12
g3
Ntp145
Rp146
(dp147
g16
(F-0.0
F0.0
F-1.0
tp148
sbsbag1
(g2
g3
Ntp149
Rp150
(dp151
g7
(lp152
F-0.8670598304415147
aF1.5944036648474706
aF0.028864560108210285
aF0.9502663167682041
aF0.8642283127738608
aF0.6305486004969304
aF0.3889147460966098
aF0.8083630859290835
aF1.0029769004686981
aF-1.2048844922104345
aF-0.28788852080275285
aF-0.9740532423578541
aF-0.3081801449781157
aF-0.36943161462909013
asg9
(lp153
F-0.0129789448869847
aF0.631920023349311
aF0.744227235393354
aF0.8775543534295254
aF0.7646686813456375
aF0.5204263872945286
aF0.7741775542231344
aF-0.29003662730605234
aF0.929463851280208
aF-0.7130015935835324
aF0.10388204518323993
aF-0.24787732905948812
aF-0.16631893495499991
aF-0.06869783377257631
asg11
g1
(g12
g3
Ntp154
Rp155
(dp156
g16
(F-0.0
F0.0
F-1.0
tp157
sbsbag1
(g2
g3
Ntp158
Rp159
(dp160
g7
(lp161
F-0.9824753536200709
aF1.5208444297524566
aF0.023166686464881132
aF0.9502663167682041
aF1.0490431430157263
aF0.27949539412889013
aF0.49824246188097243
aF0.3249576130240381
aF0.9677064988749312
aF-0.6951910889493791
aF-0.28788852080275285
aF-1.4224709703362652
aF-0.2973437183717079
aF-0.7492800625285834
asg9
(lp162
F-0.012978944886984702
aF0.6319200233493109
aF2.148815035299595
aF0.9042284395925937
aF0.7646686813456375
aF0.8173865455944993
aF-0.03376797148751032
aF0.9482828045307229
aF-1.1723838951569105
aF-0.7153683741429414
aF0.25050202069542327
aF0.17369791485123331
aF-0.5713416528719983
aF0.4752229448757956
asg11
g1
(g12
g3
Ntp163
Rp164
(dp165
g16
(F-0.0
F0.0
F-1.0
tp166
sbsbag1
(g2
g3
Ntp167
Rp168
(dp169
g7
(lp170
F-1.4343465831929347
aF2.333246314838442
aF-1.2524570669024198
aF1.0871094304611182
aF-0.06850687338970973
aF1.7217002226180014
aF0.5791276848590208
aF0.29072890566355886
aF0.5702808484967224
aF-0.49998032725062563
aF-0.6597065819575962
aF-1.191184044686264
aF-0.8384662420778346
aF0.22184697274892592
asg9
(lp171
F-0.0129789448869847
aF1.1945072898471132
aF0.6460064632907188
aF2.2146246629414783
aF0.614390395164603
aF0.27977604792032046
aF-0.5299733415486397
aF0.48801368634847697
aF-0.11547786926370515
aF0.06442844090640339
aF-0.5483869708175537
aF-0.5770343708777309
aF-0.7877475655474363
aF-0.525398510028414
asg11
g1
(g12
g3
Ntp172
Rp173
(dp174
g16
(F-0.0
F0.0
F-2.0
tp175
sbsbag1
(g2
g3
Ntp176
Rp177
(dp178
g7
(lp179
F-1.8725392407549768
aF0.5591744894713342
aF0.18602353753374534
aF0.950266316768204
aF1.0338915430134663
aF0.15625386878027886
aF1.094671558607345
aF0.22799593822961675
aF0.14619420148189266
aF-0.5215153657746125
aF-0.3443140311102851
aF-0.7615822814246017
aF-0.5535688650187279
aF-1.0387884635942284
asg9
(lp180
F-0.0129789448869847
aF-0.5972582967608906
aF0.3525919598111172
aF0.8837209724148195
aF-0.885670708962768
aF0.4963889886476438
aF0.7831879087011137
aF1.5067884650678518
aF1.2277469105978396
aF-0.012363973826752053
aF-0.0697217103880805
aF-0.012675333410935019
aF-0.037603231386305974
aF-0.9758518071675643
asg11
g1
(g12
g3
Ntp181
Rp182
(dp183
g16
(F-0.0
F0.0
F-2.0
tp184
sbsbag1
(g2
g3
Ntp185
Rp186
(dp187
g7
(lp188
F-0.6654819477099032
aF1.1817477962131937
aF0.26002321610108303
aF0.950266316768204
aF-0.7716262232762608
aF-0.9430131486988768
aF0.8343713420440677
aF0.06041364886392826
aF0.9684458303834436
aF-0.6951910889493791
aF0.5366886581335679
aF-0.9037113908258567
aF0.6831596805769162
aF-0.3106918625035108
asg9
(lp189
F-0.0129789448869847
aF1.033414795049258
aF0.4780376926185677
aF0.8536695754307672
aF0.8578015219610672
aF0.4963889886476438
aF0.8203288281699157
aF1.051509293456031
aF0.7922950744364305
aF-0.1629123571171588
aF-0.952725724838142
aF-0.3596127519774587
aF-0.12615545983548934
aF-0.36339894230104386
asg11
g1
(g12
g3
Ntp190
Rp191
(dp192
g16
(F-0.0
F0.0
F-2.0
tp193
sbsbag1
(g2
g3
Ntp194
Rp195
(dp196
g7
(lp197
F-0.016645705185833304
aF0.09552804881811094
aF0.2352881812398112
aF0.041215842086233745
aF0.9649885573763387
aF0.8625181949434936
aF0.5382377039062569
aF0.22823523344250118
aF0.6785661619733644
aF-0.48717254210800875
aF-0.6261275309465921
aF-0.0753127033203832
aF-0.5163882756240176
aF-0.37094303551549923
asg9
(lp198
F-0.09414121350050442
aF0.4314628482853956
aF0.3353258418571421
aF0.6403830564283665
aF0.09598382788098858
aF0.28010926648955436
aF0.4812576987252686
aF0.8131033649540802
aF0.3312189593644952
aF-0.9418076970667286
aF-0.8471365603208442
aF-0.1632171978257998
aF-0.04712185206517128
aF-0.42084351170368683
asg11
g1
(g12
g3
Ntp199
Rp200
(dp201
g16
(F-0.0
F0.0
F-1.0
tp202
sbsbag1
(g2
g3
Ntp203
Rp204
(dp205
g7
(lp206
F0.024792198813781273
aF0.06741399800162208
aF-0.06833306087537878
aF0.0855717413827958
aF0.7809884272669716
aF-0.0644811114238858
aF0.5067410328467989
aF-1.0191360993464742
aF-0.5528902107563538
aF-0.6612465756657818
aF-0.7237575883754968
aF-0.29269574339943905
aF-0.5070906116843369
aF-0.38366986678978077
asg9
(lp207
F0.48465253481675
aF0.32110898365987234
aF0.6783059756664537
aF0.6387306782229963
aF0.16216178465891443
aF0.3178948415335318
aF0.4610596756530879
aF0.9531922362745353
aF0.3418547702020029
aF-0.9562568935714526
aF-0.08873888201403277
aF-0.14283097987043722
aF0.0018486320506811236
aF1.8243714876755848
asg11
g1
(g12
g3
Ntp208
Rp209
(dp210
g16
(F-0.0
F0.0
F-1.0
tp211
sbsbag1
(g2
g3
Ntp212
Rp213
(dp214
g7
(lp215
F-0.009011409215702058
aF0.799981554971718
aF0.8983950711852433
aF0.2219512510575137
aF0.30474653521371636
aF0.7490346479050448
aF0.4846140396089784
aF0.36431704243777563
aF-0.6818956194289598
aF-0.7275870690526947
aF-0.4866963399649385
aF0.029281246348784602
aF-0.5820493537419265
aF-0.4589088605553139
asg9
(lp216
F0.9376606764464955
aF-0.7035451966406924
aF0.4446940680577775
aF-0.08249969593851116
aF0.19487021373654295
aF0.2604735502421904
aF0.046776809902977196
aF0.48395744734546375
aF2.0436426932531755
aF-0.6050510041990562
aF0.2530235431602324
aF0.029018585532430478
aF0.4487802515859325
aF0.4150029492690455
asg11
g1
(g12
g3
Ntp217
Rp218
(dp219
g16
(F-0.0
F0.0
F-1.0
tp220
sbsbag1
(g2
g3
Ntp221
Rp222
(dp223
g7
(lp224
F-0.016645705185833304
aF-0.15763726677047185
aF0.07635487830694918
aF0.041215842086233745
aF0.9649885573763387
aF2.3071696289843775
aF0.5382377039062569
aF0.9171851110439883
aF0.6785661619733644
aF-0.48717254210800875
aF-0.6261275309465921
aF-0.0753127033203832
aF-0.5163882756240176
aF-0.643166176218871
asg9
(lp225
F-0.09414121350050442
aF0.36871444789871055
aF0.3353258418571421
aF0.6403830564283665
aF0.09598382788098858
aF-0.16735711148701704
aF0.4812576987252686
aF0.8679645860102605
aF-0.0513433872589979
aF-1.8219711981888962
aF-0.8471365603208442
aF-0.43116394467754043
aF-0.04712185206517128
aF-0.42084351170368683
asg11
g1
(g12
g3
Ntp226
Rp227
(dp228
g16
(F-0.0
F0.0
F-1.0
tp229
sbsbag1
(g2
g3
Ntp230
Rp231
(dp232
g7
(lp233
F0.024792198813781273
aF0.06741399800162208
aF-0.06833306087537878
aF0.0855717413827958
aF0.7809884272669716
aF-0.0644811114238858
aF0.5067410328467989
aF-1.0191360993464742
aF-0.5528902107563538
aF-0.6612465756657818
aF-0.7237575883754968
aF-0.29269574339943905
aF-0.5070906116843369
aF-0.38366986678978077
asg9
(lp234
F0.48465253481675
aF0.32110898365987234
aF0.6783059756664537
aF0.6387306782229963
aF0.16216178465891443
aF0.3178948415335318
aF0.4610596756530879
aF0.9531922362745353
aF0.3418547702020029
aF-0.9562568935714526
aF-0.08873888201403277
aF-0.14283097987043722
aF0.0018486320506811236
aF1.8243714876755848
asg11
g1
(g12
g3
Ntp235
Rp236
(dp237
g16
g211
sbsbag1
(g2
g3
Ntp238
Rp239
(dp240
g7
(lp241
F-0.016645705185833304
aF-0.4822594628622602
aF0.2352881812398112
aF-0.2946483681772002
aF0.9649885573763387
aF0.8625181949434936
aF0.5382377039062569
aF0.22823523344250118
aF-0.1036672533976839
aF-0.48717254210800875
aF-0.6261275309465921
aF-0.0753127033203832
aF-0.5163882756240176
aF-0.37094303551549923
asg9
(lp242
F-0.38508126670222975
aF0.4314628482853956
aF-0.6345506022814201
aF0.17890081109426986
aF0.09598382788098858
aF0.28010926648955436
aF0.4812576987252686
aF0.8131033649540802
aF0.3312189593644952
aF-0.9418076970667286
aF-0.8471365603208442
aF-0.1632171978257998
aF0.6252169486278542
aF-0.49369363195195415
asg11
g1
(g12
g3
Ntp243
Rp244
(dp245
g16
(F-0.0
F0.0
F-1.0
tp246
sbsbag1
(g2
g3
Ntp247
Rp248
(dp249
g7
(lp250
F-0.009011409215702058
aF0.799981554971718
aF1.3830366740611268
aF0.2219512510575137
aF0.30474653521371636
aF0.7490346479050448
aF0.04713734552827864
aF0.4787466892239799
aF-0.6818956194289598
aF-0.7389655090765619
aF-0.4866963399649385
aF0.029281246348784602
aF-0.5820493537419265
aF-0.7768589611899497
asg9
(lp251
F0.9471412183859153
aF-0.7035451966406924
aF0.4446940680577775
aF-0.08249969593851116
aF0.008885265784233182
aF0.2604735502421904
aF0.046776809902977196
aF0.3386749712583774
aF1.4538405916827688
aF-0.6050510041990562
aF0.2530235431602324
aF-0.07386971995197625
aF0.5242481772398256
aF0.02121281567093558
asg11
g1
(g12
g3
Ntp252
Rp253
(dp254
g16
(F-0.0
F0.0
F-1.0
tp255
sbsbag1
(g2
g3
Ntp256
Rp257
(dp258
g7
(lp259
F-0.00010174135395595854
aF0.5864736013721585
aF-0.9042011055013541
aF-0.570704054037336
aF0.1813436922229265
aF1.5754549855568438
aF0.505571053089285
aF0.8117989431639765
aF0.045583514447919665
aF-0.5749349388278395
aF-0.4679634779412731
aF0.07099783641243064
aF-1.3274235439721134
aF-0.4586273098305792
asg9
(lp260
F0.9330895021714705
aF0.015484429748531772
aF0.2030953467092947
aF0.33220835224973416
aF1.0975113498759805
aF0.29679050277594277
aF0.7522418617611438
aF-0.204301760258018
aF2.006495685753528
aF-1.4080600907745793
aF-1.708025454040057
aF0.32141745747408734
aF0.586548414670849
aF0.489941632322963
asg11
g1
(g12
g3
Ntp261
Rp262
(dp263
g16
(F-0.0
F0.0
F-1.0
tp264
sbsbag1
(g2
g3
Ntp265
Rp266
(dp267
g7
(lp268
F-0.011397953730391593
aF0.49089645710675417
aF1.0941804245704785
aF0.22223609689821086
aF1.3410220485343491
aF0.0007954583642487689
aF0.849214593079183
aF0.18914533662479932
aF-0.10521129948987433
aF-0.6629008689307692
aF-0.6370280687008518
aF-0.3275753478357847
aF-0.6139875516325584
aF-0.3804789202003823
asg9
(lp269
F-0.5417048273599251
aF0.5163820091067138
aF-0.18274137021321712
aF0.024700540352733474
aF-0.43786182545018854
aF0.3723890163829172
aF0.307145118461919
aF0.8798388821771926
aF1.3069689963972604
aF-0.981049794790602
aF0.2716826546871382
aF0.09465673335464281
aF-0.04551102914717947
aF1.3827917303330033
asg11
g1
(g12
g3
Ntp270
Rp271
(dp272
g16
(F-0.0
F0.0
F-2.0
tp273
sbsbag1
(g2
g3
Ntp274
Rp275
(dp276
g7
(lp277
F-0.009400047742704414
aF0.2389271284694737
aF0.8776095421855361
aF-0.027938010255868208
aF1.0693451085133385
aF-3.730398390962134
aF0.9221827912890767
aF0.07558675384435248
aF-0.54151282270314
aF-0.6610660884987121
aF-0.8111720807842395
aF-0.36679247559885314
aF-1.110076066827632
aF-0.3894881591510315
asg9
(lp278
F0.6518799832353722
aF0.31612652332806923
aF0.27936202221428114
aF2.0060998133045893
aF0.06151261203010364
aF0.2923472832102372
aF0.3034195216014078
aF0.9731246335031573
aF0.6805534367417837
aF-1.114738052476273
aF-0.8251012423900566
aF0.2621296905490172
aF-0.1033257204725581
aF1.442895592084854
asg11
g1
(g12
g3
Ntp279
Rp280
(dp281
g16
(F-0.0
F0.0
F-1.0
tp282
sbsbag1
(g2
g3
Ntp283
Rp284
(dp285
g7
(lp286
F-0.018962220249411257
aF0.3499253579781194
aF1.660819431731848
aF1.285838389237155
aF0.2634699341211043
aF-0.44145963888386264
aF1.187266752469472
aF-0.03278833677398607
aF0.870839367579123
aF0.47982937933582037
aF-0.8819734037669409
aF-0.9684713098347197
aF-2.5454912714862292
aF-0.628303952209873
asg9
(lp287
F-0.09456061612575117
aF-0.2967318635511331
aF0.624303917873354
aF-0.3013509963029499
aF0.4133408788512314
aF-0.20821412362406977
aF0.3591409572389604
aF-0.35006607257223266
aF0.5613022807802686
aF-2.509005705648351
aF0.10805932085467142
aF-0.6412606033336483
aF-2.9373554285770873
aF0.7981040939809328
asg11
g1
(g12
g3
Ntp288
Rp289
(dp290
g16
(F-0.0
F0.0
F-1.0
tp291
sbsbag1
(g2
g3
Ntp292
Rp293
(dp294
g7
(lp295
F-0.018962220249411257
aF0.3499253579781194
aF1.660819431731848
aF1.285838389237155
aF0.2634699341211043
aF-0.44145963888386264
aF1.187266752469472
aF-0.03278833677398607
aF0.870839367579123
aF0.47982937933582037
aF-0.8819734037669409
aF-0.9684713098347197
aF-2.5454912714862292
aF-0.628303952209873
asg9
(lp296
F-0.09456061612575117
aF-0.2967318635511331
aF0.624303917873354
aF-0.3013509963029499
aF0.4133408788512314
aF-0.20821412362406977
aF0.3591409572389604
aF-0.35006607257223266
aF0.5613022807802686
aF-2.509005705648351
aF0.10805932085467142
aF-0.6412606033336483
aF-2.9373554285770873
aF0.7981040939809328
asg11
g1
(g12
g3
Ntp297
Rp298
(dp299
g16
g291
sbsbag1
(g2
g3
Ntp300
Rp301
(dp302
g7
(lp303
F0.09281074749998586
aF-0.8510086393873255
aF-0.04169465275792228
aF0.1528712708966562
aF0.04588902983048898
aF-0.07351680787724696
aF1.3164937128005474
aF0.7592955525822409
aF0.6614651479724032
aF0.454226376459933
aF-0.8973751818207187
aF-0.9366905478817287
aF-1.9688515168236576
aF-0.21699992343935298
asg9
(lp304
F-0.03484497663194919
aF-0.04446448684440801
aF0.6820754556246682
aF-0.5433722631704055
aF0.7989897230008207
aF-0.9661008722174724
aF0.3991950063915949
aF1.2090564869143072
aF0.42151475318088427
aF0.5106275921526199
aF-1.3951150723560595
aF-0.40903314288111026
aF-1.1550493312113879
aF0.008778380891719367
asg11
g1
(g12
g3
Ntp305
Rp306
(dp307
g16
(F-0.0
F0.0
F-1.0
tp308
sbsbag1
(g2
g3
Ntp309
Rp310
(dp311
g7
(lp312
F-0.018962220249411257
aF0.3499253579781194
aF1.660819431731848
aF1.285838389237155
aF0.2634699341211043
aF-0.44145963888386264
aF1.187266752469472
aF-0.03278833677398607
aF0.870839367579123
aF0.47982937933582037
aF-0.8819734037669409
aF-0.9684713098347197
aF-2.5454912714862292
aF-0.628303952209873
asg9
(lp313
F-0.09456061612575117
aF-0.2967318635511331
aF0.624303917873354
aF-0.3013509963029499
aF0.4133408788512314
aF-0.20821412362406977
aF0.3591409572389604
aF-0.35006607257223266
aF0.5613022807802686
aF-2.509005705648351
aF0.10805932085467142
aF-0.6412606033336483
aF-2.9373554285770873
aF0.7981040939809328
asg11
g1
(g12
g3
Ntp314
Rp315
(dp316
g16
g291
sbsbag1
(g2
g3
Ntp317
Rp318
(dp319
g7
(lp320
F-0.018962220249411257
aF0.27162879641212323
aF1.660819431731848
aF1.5633397407325558
aF0.5299296345910196
aF-0.44145963888386264
aF1.187266752469472
aF-0.03278833677398607
aF0.870839367579123
aF0.47982937933582037
aF-0.8819734037669409
aF-0.21040920743460934
aF-2.5454912714862292
aF-0.628303952209873
asg9
(lp321
F0.9843710413742287
aF-0.2967318635511331
aF0.26106140053333954
aF-0.3013509963029499
aF0.4133408788512314
aF-0.05429066577265307
aF0.3591409572389604
aF-0.35006607257223266
aF0.5613022807802686
aF-2.509005705648351
aF-0.27471695501865323
aF-0.6412606033336483
aF-2.9373554285770873
aF1.3648982189220091
asg11
g1
(g12
g3
Ntp322
Rp323
(dp324
g16
(F-0.0
F0.0
F-1.0
tp325
sbsbag1
(g2
g3
Ntp326
Rp327
(dp328
g7
(lp329
F-0.1344408589970169
aF-0.48446445839560853
aF0.9007859505379294
aF0.7002487561548321
aF-0.17597349400887327
aF0.41500946998406574
aF0.3171494304055714
aF0.3538956766299706
aF0.6171931092117977
aF-0.0321825422178907
aF-0.8203288550704385
aF-0.2014090214498686
aF0.015771253077195513
aF0.35869485831989956
asg9
(lp330
F-0.04948758534686521
aF0.49141602753324304
aF0.8941887325062525
aF0.17623086944728203
aF0.007185298415188751
aF1.886491839655969
aF-0.007775129581486795
aF1.394216703280007
aF0.7720552333038819
aF-0.6097120727108984
aF-1.431666246388391
aF-0.5661098320988962
aF-1.3888831931032204
aF-0.7703161586122262
asg11
g1
(g12
g3
Ntp331
Rp332
(dp333
g16
(F-0.0
F0.0
F-1.0
tp334
sbsbag1
(g2
g3
Ntp335
Rp336
(dp337
g7
(lp338
F-0.041295270097826894
aF-0.1681114759479963
aF1.0263436985459187
aF-0.33775748726232957
aF-0.8727886785477557
aF1.195835074670393
aF0.3540338740159118
aF0.6771678338781072
aF-0.036301686565021814
aF-0.7182437704296933
aF-0.6429087009945996
aF-0.1422692060034902
aF0.04234421671564251
aF0.06708272039885844
asg9
(lp339
F0.2013663491408133
aF0.27516556515123636
aF0.7897740752934865
aF-0.06664122196753998
aF-0.5468874003866752
aF0.21602212805802115
aF1.262686898193916
aF-0.29633321519590805
aF-0.3529831784213312
aF0.5947667489471632
aF-0.640443839548812
aF-0.8803244039482494
aF-0.46043540312234643
aF-0.5428919601017279
asg11
g1
(g12
g3
Ntp340
Rp341
(dp342
g16
(F-0.0
F0.0
F-1.0
tp343
sbsbag1
(g2
g3
Ntp344
Rp345
(dp346
g7
(lp347
F-0.019415757305722352
aF-1.3520533564842934
aF0.36035438310772366
aF0.25948497298490475
aF-0.23074611290833316
aF0.5025159961308144
aF-0.05484761133722857
aF0.33816063707393296
aF-0.036961144011925684
aF-0.9835498579226822
aF-0.31196855405414364
aF-1.820216985993912
aF-0.5774908087109935
aF-0.2283470592788448
asg9
(lp348
F-0.45274822461799724
aF-0.044001261886602305
aF0.5365099537072122
aF0.45218799631918266
aF1.2425141474365016
aF-0.42496969835252457
aF0.6405192170269927
aF-0.1762310303155228
aF-0.06044438250462514
aF-1.6884564174943755
aF-0.05422603517820181
aF-0.5583348290832768
aF-0.817187902563245
aF-0.5244010971428503
asg11
g1
(g12
g3
Ntp349
Rp350
(dp351
g16
(F-0.0
F0.0
F-1.0
tp352
sbsbag1
(g2
g3
Ntp353
Rp354
(dp355
g7
(lp356
F-0.1344408589970169
aF-0.48446445839560853
aF0.9007859505379294
aF0.7002487561548321
aF-0.17597349400887327
aF0.41500946998406574
aF0.3171494304055714
aF0.3538956766299706
aF0.6171931092117977
aF-0.0321825422178907
aF-0.8203288550704385
aF-0.2014090214498686
aF0.015771253077195513
aF0.35869485831989956
asg9
(lp357
F-0.04948758534686521
aF0.49141602753324304
aF0.8941887325062525
aF0.17623086944728203
aF0.007185298415188751
aF1.886491839655969
aF-0.007775129581486795
aF1.394216703280007
aF0.7720552333038819
aF-0.6097120727108984
aF-1.431666246388391
aF-0.5661098320988962
aF-1.3888831931032204
aF-0.7703161586122262
asg11
g1
(g12
g3
Ntp358
Rp359
(dp360
g16
g334
sbsbag1
(g2
g3
Ntp361
Rp362
(dp363
g7
(lp364
F-0.041295270097826894
aF-0.1681114759479963
aF0.8604261580684541
aF0.3471155991516863
aF-1.5132649019887312
aF0.8146823011004118
aF0.3540338740159118
aF1.0010277775888685
aF-0.036301686565021814
aF-0.7182437704296933
aF-0.6429087009945996
aF-0.1422692060034902
aF0.04234421671564251
aF0.06708272039885844
asg9
(lp365
F0.2013663491408133
aF-0.2669618449032556
aF0.7897740752934865
aF-0.06664122196753998
aF-0.5468874003866752
aF0.21602212805802115
aF1.262686898193916
aF-0.29633321519590805
aF-0.3529831784213312
aF0.3389150412450341
aF-0.640443839548812
aF-0.7698884295720471
aF-0.46043540312234643
aF-0.5428919601017279
asg11
g1
(g12
g3
Ntp366
Rp367
(dp368
g16
(F-0.0
F0.0
F-1.0
tp369
sbsbag1
(g2
g3
Ntp370
Rp371
(dp372
g7
(lp373
F-0.019415757305722352
aF-1.3520533564842934
aF0.36035438310772366
aF0.25948497298490475
aF-0.23074611290833316
aF0.5025159961308144
aF-0.05484761133722857
aF0.33816063707393296
aF-0.036961144011925684
aF-0.9835498579226822
aF-0.31196855405414364
aF-1.820216985993912
aF-0.5774908087109935
aF-0.2283470592788448
asg9
(lp374
F-0.45274822461799724
aF-0.044001261886602305
aF0.5365099537072122
aF0.45218799631918266
aF1.2425141474365016
aF-0.42496969835252457
aF0.6405192170269927
aF-0.1762310303155228
aF-0.06044438250462514
aF-1.6884564174943755
aF-0.05422603517820181
aF-0.5583348290832768
aF-0.817187902563245
aF-0.5244010971428503
asg11
g1
(g12
g3
Ntp375
Rp376
(dp377
g16
g352
sbsbag1
(g2
g3
Ntp378
Rp379
(dp380
g7
(lp381
F-0.1344408589970169
aF-0.48446445839560853
aF0.18861178685349178
aF0.7002487561548321
aF-0.576058947588746
aF0.7005972129741767
aF0.9506987774879373
aF0.3538956766299706
aF0.6675072964403838
aF0.1463072600685673
aF-0.4769155706927496
aF-0.7896646122986679
aF0.8746001559022347
aF-0.34177888582336813
asg9
(lp382
F-0.04948758534686521
aF0.49141602753324304
aF0.8941887325062525
aF0.17623086944728203
aF0.007185298415188751
aF1.886491839655969
aF-0.007775129581486795
aF1.394216703280007
aF0.05094432388941672
aF-0.6097120727108984
aF-1.431666246388391
aF-0.9449260153362393
aF-1.5841632223758437
aF-0.7703161586122262
asg11
g1
(g12
g3
Ntp383
Rp384
(dp385
g16
(F-0.0
F0.0
F-1.0
tp386
sbsbag1
(g2
g3
Ntp387
Rp388
(dp389
g7
(lp390
F0.010542161431426614
aF-0.49971906492931384
aF-0.4648645284738991
aF0.17912557183514516
aF-0.22301558391875542
aF-0.15832127766156912
aF-0.10192160844265788
aF0.33815098844751795
aF-0.06258720673310658
aF-1.1239799074454164
aF0.26434235689254054
aF-0.3127213541806115
aF-0.5629069934636837
aF-0.38963938765282524
asg9
(lp391
F-0.5910469104640557
aF-0.08741326944924327
aF0.29227408089670703
aF0.2410150976799998
aF1.2663665754825981
aF-0.4292691109158062
aF0.6687061660576772
aF-0.46814685027756986
aF-0.029459175121990627
aF-1.496047702738357
aF-0.31101867523082044
aF-0.45033146333454954
aF-1.492501232272815
aF0.37648763272761077
asg11
g1
(g12
g3
Ntp392
Rp393
(dp394
g16
(F-0.0
F0.0
F-1.0
tp395
sbsbag1
(g2
g3
Ntp396
Rp397
(dp398
g7
(lp399
F0.008772070880263143
aF-0.40382614855429017
aF1.7089580619310034
aF0.13703129685729754
aF-0.3114160342099656
aF-0.4726805793626525
aF0.4084035307329956
aF0.7497301567564776
aF0.5628318834538495
aF-0.7468377698992559
aF-0.44037544748924295
aF-0.2493873150818582
aF-1.7037310721474133
aF-1.5193322959737916
asg9
(lp400
F0.7695113377121121
aF0.5331664219498181
aF1.1102295868087915
aF-1.2564671681155843
aF1.1612002754258066
aF1.0200954839765228
aF1.45622617213345
aF3.0366816083092134
aF-0.15433566231810214
aF-0.2189801081133813
aF-0.760902675533299
aF-0.8460765782462767
aF-0.9862209561650782
aF-0.033817136793981906
asg11
g1
(g12
g3
Ntp401
Rp402
(dp403
g16
(F-0.0
F0.0
F-1.0
tp404
sbsbag1
(g2
g3
Ntp405
Rp406
(dp407
g7
(lp408
F-0.0010520449848532218
aF0.3976973971298174
aF-0.5618133712851507
aF0.5211118841432073
aF-0.6267871465455406
aF0.7986161977794264
aF2.7133600089788854
aF1.370227603190897
aF-0.1755315790830184
aF-0.297752729715657
aF1.2532798272719965
aF-0.05691367224090216
aF-0.3708176619142659
aF-0.22139305603246737
asg9
(lp409
F-0.08879377009156869
aF0.35643799446756785
aF2.049122035162876
aF1.1525803530857472
aF-0.3234654759505998
aF0.5545405027394635
aF0.2233983301595868
aF-0.3459752054356442
aF1.2912878775457757
aF-0.8897227589856456
aF-1.224058256476347
aF-1.099235829558523
aF-0.47299805531879896
aF0.11280044414996454
asg11
g1
(g12
g3
Ntp410
Rp411
(dp412
g16
(F-0.0
F0.0
F-1.0
tp413
sbsbag1
(g2
g3
Ntp414
Rp415
(dp416
g7
(lp417
F-0.00026742218662091644
aF-1.9843873250926147
aF1.2207236427663326
aF0.12410381765787315
aF0.3783696914921251
aF1.4458808762211537
aF0.34939874232799756
aF0.3406029668309259
aF-0.09717530789493734
aF0.09193304287596027
aF-0.7265295447703037
aF-1.869810192695643
aF-1.3668586862795857
aF0.26838816063556536
asg9
(lp418
F-0.5700397677529636
aF0.2168099883638918
aF0.5815763179623586
aF0.8396094929360772
aF1.7595579980790277
aF-0.6021480713087729
aF-0.45161091701708705
aF-0.8260898185704371
aF-0.12959307314374058
aF-0.7081095482528548
aF-1.5651090798675225
aF-0.2818667697746791
aF-0.048762582122995224
aF-0.3749175728469224
asg11
g1
(g12
g3
Ntp419
Rp420
(dp421
g16
(F-0.0
F0.0
F-1.0
tp422
sbsbag1
(g2
g3
Ntp423
Rp424
(dp425
g7
(lp426
F-0.21660077005413467
aF0.2562287568715885
aF-0.15045996266312298
aF0.7778112129234799
aF0.5654180587122044
aF1.4815774844600762
aF0.7092919448193534
aF-0.02508313946748228
aF2.35408255993276
aF-0.4969785299031167
aF-0.1369696195809457
aF-1.4280876520274435
aF-0.247631376877745
aF0.6101513750733224
asg9
(lp427
F-0.011883371256332986
aF2.437402054167067
aF-0.33044999123642227
aF0.5222424564681658
aF0.29392310394929916
aF0.8420623257526163
aF-0.6096059075756516
aF-1.3281973218688148
aF0.2629468028199048
aF-0.4202405663492731
aF-0.3821798119945925
aF-0.6829273971796461
aF0.03641876199333986
aF0.26274613171917094
asg11
g1
(g12
g3
Ntp428
Rp429
(dp430
g16
(F-0.0
F0.0
F-1.0
tp431
sbsbag1
(g2
g3
Ntp432
Rp433
(dp434
g7
(lp435
F-0.011173009344198223
aF0.6478955732557937
aF0.5201492610188222
aF0.19189155538540614
aF0.8458078525084034
aF-0.3749115892906394
aF1.4768553849804538
aF0.5188532262969517
aF0.61509649234177
aF-0.21670639494143268
aF-0.5209773755790676
aF-0.34584849870306733
aF-0.8264167692311422
aF-0.9141503467834299
asg9
(lp436
F-0.6499385072975894
aF0.27345964687762864
aF0.7399982157978116
aF0.7220905091857555
aF1.0914842355918966
aF-0.02689421792579086
aF0.7604172573024708
aF0.6160691744026745
aF0.8377804822161449
aF-0.9287383949105614
aF-0.28161833417283905
aF-0.1420543683870412
aF0.04889940011851712
aF-0.4239760695942776
asg11
g1
(g12
g3
Ntp437
Rp438
(dp439
g16
(F-0.0
F0.0
F-1.0
tp440
sbsbag1
(g2
g3
Ntp441
Rp442
(dp443
g7
(lp444
F-0.015687178034704333
aF0.45622993710772924
aF-0.32412261083084903
aF0.9505916836405922
aF0.8631629716452364
aF-1.2874955353451392
aF1.1464484083266093
aF-0.2552945704871429
aF2.5704416537217654
aF-0.10119985623857436
aF-0.6080054320707182
aF-1.7259642610844426
aF-0.8452911595608449
aF-0.8124418927290142
asg9
(lp445
F-0.25326968143114365
aF1.7574654564034886
aF1.1645497365403108
aF0.6708313351737898
aF0.14402951766915953
aF0.871520748181313
aF1.3827261875459786
aF-0.08314295606849975
aF0.44035855557362136
aF-0.4719694768261252
aF-0.2975409352445637
aF-0.5351799042858179
aF0.047814790002172994
aF-0.3375088481872034
asg11
g1
(g12
g3
Ntp446
Rp447
(dp448
g16
(F-0.0
F0.0
F-1.0
tp449
sbsbag1
(g2
g3
Ntp450
Rp451
(dp452
g7
(lp453
F-0.015687178034704333
aF0.45622993710772924
aF-1.1706781561810398
aF1.7104018886499404
aF0.5570902465286796
aF-1.4594935270069822
aF1.1464484083266093
aF-0.2552945704871429
aF2.5704416537217654
aF-0.10119985623857436
aF-0.6080054320707182
aF-1.7780708307186104
aF-1.1086662825983198
aF-0.8124418927290142
asg9
(lp454
F-0.7901553330793338
aF1.7574654564034886
aF1.1645497365403108
aF1.600766182581209
aF0.14402951766915953
aF0.34537142230200757
aF1.3827261875459786
aF-0.6351400742680707
aF0.44035855557362136
aF-0.6150158548973916
aF-0.8878079344834738
aF-0.5351799042858179
aF0.047814790002172994
aF-0.608687587524948
asg11
g1
(g12
g3
Ntp455
Rp456
(dp457
g16
(F-0.0
F0.0
F-1.0
tp458
sbsbag1
(g2
g3
Ntp459
Rp460
(dp461
g7
(lp462
F-0.015687178034704333
aF0.45622993710772924
aF-0.32412261083084903
aF0.9505916836405922
aF0.8631629716452364
aF-1.2874955353451392
aF1.1464484083266093
aF-0.2552945704871429
aF2.5704416537217654
aF-0.10119985623857436
aF-0.6080054320707182
aF-1.7259642610844426
aF-0.8452911595608449
aF-0.8124418927290142
asg9
(lp463
F-0.25326968143114365
aF1.7574654564034886
aF1.1645497365403108
aF0.6708313351737898
aF0.14402951766915953
aF0.871520748181313
aF1.3827261875459786
aF-0.08314295606849975
aF0.44035855557362136
aF-0.4719694768261252
aF-0.2975409352445637
aF-0.5351799042858179
aF0.047814790002172994
aF-0.3375088481872034
asg11
g1
(g12
g3
Ntp464
Rp465
(dp466
g16
g449
sbsbag1
(g2
g3
Ntp467
Rp468
(dp469
g7
(lp470
F-0.7891627163882783
aF0.5519940296288919
aF-2.9672417553368302e-05
aF0.4433170928528176
aF1.1761582987347883
aF-1.2240460990074054
aF1.3098721765600079
aF1.4466233733969198
aF0.020956702764337864
aF-0.528848452989891
aF-0.8844719956445466
aF-0.7181657583394809
aF-0.9645335334460132
aF-1.5308605800754846
asg9
(lp471
F0.002069706442454619
aF1.9133984400758444
aF1.077845745452027
aF2.0408712900353505
aF-0.531113661604544
aF0.37453651065116134
aF1.0775771201778213
aF0.829264158898837
aF0.5925414989834209
aF-0.3795386887748162
aF-0.8490246365110337
aF0.36912192529916377
aF0.34730632577354725
aF0.34523374975349064
asg11
g1
(g12
g3
Ntp472
Rp473
(dp474
g16
(F-0.0
F0.0
F-2.0
tp475
sbsbag1
(g2
g3
Ntp476
Rp477
(dp478
g7
(lp479
F-0.03966220591990799
aF0.5699634843785933
aF0.1576399072886857
aF0.79202374106218
aF0.24017517612355543
aF0.9718176633265198
aF0.04047147966353293
aF0.02462447434090087
aF0.986875399126651
aF-0.17486994707665493
aF-0.4256429606766232
aF-0.7598135458139623
aF-0.8153151300042353
aF-0.5311492819192443
asg9
(lp480
F-0.5849852676071182
aF0.6144064705061605
aF0.8564188977146255
aF0.8227619466749967
aF0.36278989701628905
aF0.47805883320643294
aF0.6140004824474973
aF0.4756008319691617
aF0.01651132365739494
aF-0.4830241544784102
aF-0.7583852806934276
aF-0.8099741941563809
aF-0.7463644613808514
aF-0.7972595399622935
asg11
g1
(g12
g3
Ntp481
Rp482
(dp483
g16
(F-0.0
F0.0
F-1.0
tp484
sbsbag1
(g2
g3
Ntp485
Rp486
(dp487
g7
(lp488
F-0.046080209989626586
aF0.2958045504065425
aF0.1365426328810624
aF0.3357126047312252
aF0.15131209335122464
aF0.598244674022581
aF0.6824457624556458
aF0.04865909368031174
aF0.0745520564656258
aF-0.8434501221284872
aF-0.49835357077198617
aF-0.13848853598442368
aF-0.22104992437212367
aF-0.11613149638425047
asg9
(lp489
F-0.9348507997853271
aF0.3763756928053026
aF0.593531280675732
aF0.05448935517048126
aF0.37537095443527113
aF0.2521583769995349
aF0.8262937183340092
aF0.30428378617973273
aF0.309096103094326
aF-0.3678125048216605
aF-0.0690443988393884
aF-0.6520102973197377
aF-0.6219993909227295
aF-0.4405653816279522
asg11
g1
(g12
g3
Ntp490
Rp491
(dp492
g16
(F-0.0
F0.0
F-1.0
tp493
sbsbag1
(g2
g3
Ntp494
Rp495
(dp496
g7
(lp497
F-0.046080209989626586
aF0.2958045504065425
aF0.1365426328810624
aF0.3357126047312252
aF0.15131209335122464
aF0.598244674022581
aF0.6824457624556458
aF0.04865909368031174
aF0.0745520564656258
aF-0.8434501221284872
aF-0.49835357077198617
aF-0.13848853598442368
aF-0.22104992437212367
aF-0.11613149638425047
asg9
(lp498
F-0.9348507997853271
aF0.3763756928053026
aF0.593531280675732
aF0.05448935517048126
aF0.37537095443527113
aF0.2521583769995349
aF0.8262937183340092
aF0.30428378617973273
aF0.309096103094326
aF-0.3678125048216605
aF-0.0690443988393884
aF-0.6520102973197377
aF-0.6219993909227295
aF-0.4405653816279522
asg11
g1
(g12
g3
Ntp499
Rp500
(dp501
g16
g493
sbsbag1
(g2
g3
Ntp502
Rp503
(dp504
g7
(lp505
F-0.046080209989626586
aF0.3942628092915744
aF1.8562335003838781
aF0.2053688981570906
aF0.5650244829592331
aF0.9108631797121508
aF1.2122927198965066
aF-0.31969133460484234
aF0.0745520564656258
aF-1.943047181488619
aF-0.8858845535008174
aF-0.09195944315339621
aF-0.3325411473431471
aF-0.11613149638425047
asg9
(lp506
F-0.275380733598084
aF0.3763756928053026
aF0.48801069307860284
aF0.05448935517048126
aF0.4740864741717954
aF0.0681089864795371
aF1.5779746515971356
aF0.407709776134982
aF0.309096103094326
aF-0.5590623921815719
aF-0.4093712845070824
aF-0.5876943363531816
aF-0.7987696224539912
aF-1.2086458021005568
asg11
g1
(g12
g3
Ntp507
Rp508
(dp509
g16
(F-0.0
F0.0
F-1.0
tp510
sbsbag1
(g2
g3
Ntp511
Rp512
(dp513
g7
(lp514
F-0.046080209989626586
aF0.4994806189029447
aF0.04144328143320608
aF0.2614794584819767
aF0.23146068644619958
aF0.7774871712941258
aF1.1903639067566105
aF0.6929905895948272
aF0.0745520564656258
aF-0.6924826197691736
aF-0.8895381487376961
aF-0.09434556330390657
aF-0.40038160194891814
aF-0.11613149638425047
asg9
(lp515
F-0.5805526571900128
aF0.3763756928053026
aF0.5618732329388485
aF0.05448935517048126
aF0.42527492615090956
aF-0.20029573453599447
aF0.8156452278872334
aF0.3133899755028408
aF0.309096103094326
aF-0.5136965036128542
aF-0.3884150140416498
aF-0.9773759518119748
aF0.4144307679363992
aF-0.8468823624251223
asg11
g1
(g12
g3
Ntp516
Rp517
(dp518
g16
(F-0.0
F0.0
F-1.0
tp519
sbsbag1
(g2
g3
Ntp520
Rp521
(dp522
g7
(lp523
F-0.3117115075029031
aF0.14293742281941813
aF0.7567751777496761
aF0.6975883709981407
aF0.34345340001251035
aF0.1624108094885186
aF0.3341740248876409
aF0.38066090699398925
aF0.9683008357064362
aF-0.2925985919885321
aF-0.18375297920482248
aF-0.8747235797324241
aF-0.2966199776863855
aF-0.2167357170306543
asg9
(lp524
F-0.0019405544411650322
aF0.17222007089541846
aF0.32631009175606707
aF0.615986082914743
aF0.7460974131293019
aF0.5620787421218213
aF0.6823381476101911
aF0.6349344003289914
aF0.0925310044949682
aF-0.6870577194617192
aF-0.5574012538832855
aF-0.11052374704307122
aF-0.9894761330280549
aF-0.6328036904202222
asg11
g1
(g12
g3
Ntp525
Rp526
(dp527
g16
(F-0.0
F0.0
F-1.0
tp528
sbsbag1
(g2
g3
Ntp529
Rp530
(dp531
g7
(lp532
F-0.6813549346521421
aF-0.48716635155259547
aF1.0211385702289144
aF0.6975883709981407
aF-0.3066776261086719
aF0.1624108094885186
aF0.3341740248876409
aF0.38066090699398925
aF0.9683008357064362
aF-0.6524672268231828
aF-0.18375297920482248
aF-0.5648201162580994
aF-0.2966199776863855
aF-0.19852457207017618
asg9
(lp533
F-0.0019405544411650322
aF0.17222007089541846
aF0.32631009175606707
aF0.615986082914743
aF0.7460974131293019
aF0.5620787421218213
aF1.629029097711154
aF0.6349344003289914
aF-0.30754577369290365
aF-0.30326155748922695
aF-0.754310462630626
aF-0.11052374704307122
aF-0.9894761330280549
aF-0.6328036904202222
asg11
g1
(g12
g3
Ntp534
Rp535
(dp536
g16
(F-0.0
F0.0
F-1.0
tp537
sbsbag1
(g2
g3
Ntp538
Rp539
(dp540
g7
(lp541
F-0.6813549346521421
aF-0.48716635155259547
aF1.0211385702289144
aF0.6975883709981407
aF-0.3066776261086719
aF0.1624108094885186
aF0.3341740248876409
aF0.38066090699398925
aF0.9683008357064362
aF-0.6524672268231828
aF-0.18375297920482248
aF-0.5648201162580994
aF-0.2966199776863855
aF-0.19852457207017618
asg9
(lp542
F-0.0019405544411650322
aF0.17222007089541846
aF0.32631009175606707
aF0.615986082914743
aF0.7460974131293019
aF0.5620787421218213
aF1.629029097711154
aF0.6349344003289914
aF-0.30754577369290365
aF-0.30326155748922695
aF-0.754310462630626
aF-0.11052374704307122
aF-0.9894761330280549
aF-0.6328036904202222
asg11
g1
(g12
g3
Ntp543
Rp544
(dp545
g16
g537
sbsbag1
(g2
g3
Ntp546
Rp547
(dp548
g7
(lp549
F-0.3117115075029031
aF0.14293742281941813
aF0.7567751777496761
aF0.6975883709981407
aF0.34345340001251035
aF0.1624108094885186
aF0.3341740248876409
aF0.38066090699398925
aF0.9683008357064362
aF-0.2925985919885321
aF-0.18375297920482248
aF-0.8747235797324241
aF-0.2966199776863855
aF-0.2167357170306543
asg9
(lp550
F-0.0019405544411650322
aF0.17222007089541846
aF0.32631009175606707
aF0.615986082914743
aF0.7460974131293019
aF0.5620787421218213
aF0.6823381476101911
aF0.6349344003289914
aF0.0925310044949682
aF-0.6870577194617192
aF-0.5574012538832855
aF-0.11052374704307122
aF-0.9894761330280549
aF-0.6328036904202222
asg11
g1
(g12
g3
Ntp551
Rp552
(dp553
g16
g528
sbsbag1
(g2
g3
Ntp554
Rp555
(dp556
g7
(lp557
F-0.6813549346521421
aF-0.48716635155259547
aF1.0211385702289144
aF1.0031566384303507
aF-0.3066776261086719
aF0.1624108094885186
aF0.5378579407490938
aF0.38066090699398925
aF0.9683008357064362
aF-0.6524672268231828
aF-0.18375297920482248
aF-0.5648201162580994
aF0.23576778675705368
aF-0.19852457207017618
asg9
(lp558
F-0.0019405544411650322
aF0.17222007089541846
aF-0.17831554872295852
aF0.615986082914743
aF0.5579328557198598
aF0.5620787421218213
aF1.629029097711154
aF0.6349344003289914
aF-1.3683588390961503
aF-0.30326155748922695
aF-0.754310462630626
aF-0.11052374704307122
aF-0.9894761330280549
aF-0.6328036904202222
asg11
g1
(g12
g3
Ntp559
Rp560
(dp561
g16
(F-0.0
F0.0
F-1.0
tp562
sbsbag1
(g2
g3
Ntp563
Rp564
(dp565
g7
(lp566
F-0.6447007528939106
aF0.054076488699295905
aF0.9074418849485439
aF0.6975883709981407
aF0.14268493755448602
aF0.1624108094885186
aF0.3341740248876409
aF0.38066090699398925
aF0.9683008357064362
aF-0.6663039472289917
aF-0.18375297920482248
aF-0.9321764814341571
aF-0.2966199776863855
aF-0.20903238571709992
asg9
(lp567
F-0.0019405544411650322
aF0.17222007089541846
aF0.32631009175606707
aF0.615986082914743
aF0.746097413129302
aF0.5620787421218213
aF2.0131021651851095
aF0.6349344003289914
aF0.1316637175012573
aF-0.660225602561911
aF-0.7627243870047296
aF-0.11052374704307122
aF-0.9894761330280549
aF-0.6328036904202221
asg11
g1
(g12
g3
Ntp568
Rp569
(dp570
g16
(F-0.0
F0.0
F-1.0
tp571
sbsbag1
(g2
g3
Ntp572
Rp573
(dp574
g7
(lp575
F-0.3483656892611346
aF-0.3983054174324732
aF0.8704718630300465
aF0.6975883709981407
aF-0.10590916365064759
aF0.1624108094885186
aF0.3341740248876409
aF0.38066090699398925
aF0.9683008357064362
aF-0.27876187158272325
aF-0.18375297920482248
aF-0.5073672145563664
aF-0.2966199776863855
aF-0.20622790338373054
asg9
(lp576
F-0.0019405544411650322
aF0.17222007089541846
aF0.32631009175606707
aF0.615986082914743
aF0.746097413129302
aF0.5620787421218213
aF0.29826508013623565
aF0.6349344003289914
aF-0.34667848669919277
aF-0.33009367438903514
aF-0.548987329509182
aF-0.11052374704307122
aF-0.9894761330280549
aF-0.6328036904202221
asg11
g1
(g12
g3
Ntp577
Rp578
(dp579
g16
(F-0.0
F0.0
F-1.0
tp580
sbsbag1
(g2
g3
Ntp581
Rp582
(dp583
g7
(lp584
F-0.037025935992335335
aF1.015107096795011
aF0.7409451397667981
aF0.6975883709981407
aF-0.19888376033932204
aF0.1624108094885186
aF0.3341740248876409
aF0.34475701194834285
aF0.9683008357064362
aF-0.5340785528531521
aF-0.18375297920482248
aF-0.7156870052598944
aF-0.2966199776863855
aF0.8001169930796034
asg9
(lp585
F-0.0019405544411650322
aF-0.45856597324948123
aF0.32631009175606707
aF0.615986082914743
aF0.7460974131293019
aF0.5620787421218213
aF1.4341607727672616
aF0.6349344003289914
aF-0.419149184770501
aF-0.4813542865231977
aF-0.6337062246901832
aF-0.1105237470430712
aF-0.9822565051069845
aF-0.6328036904202222
asg11
g1
(g12
g3
Ntp586
Rp587
(dp588
g16
(F-0.0
F0.0
F-1.0
tp589
sbsbag1
(g2
g3
Ntp590
Rp591
(dp592
g7
(lp593
F-0.6812914025199702
aF-0.44462029975464135
aF0.7114653117300906
aF-0.289940289126018
aF0.16740201141926614
aF0.1624108094885186
aF0.3341740248876409
aF0.38066090699398925
aF0.9683008357064363
aF-0.8091675135226151
aF-0.18375297920482248
aF-0.4289823532803353
aF-0.2966199776863855
aF-0.20087777118525235
asg9
(lp594
F-0.0019405544411650322
aF0.17222007089541846
aF-0.06936449451839583
aF0.5439722971432616
aF1.0188562472919873
aF0.5620787421218213
aF2.7261341237461454
aF-0.29153142024967693
aF-0.3560355927908991
aF0.41646452955393565
aF-0.660624760074747
aF-0.42859395908494513
aF-1.5686062950210304
aF-0.6328036904202222
asg11
g1
(g12
g3
Ntp595
Rp596
(dp597
g16
(F-0.0
F0.0
F-1.0
tp598
sbsbag1
(g2
g3
Ntp599
Rp600
(dp601
g7
(lp602
F-0.15741413454345404
aF-0.2220895012362541
aF1.0828274910388602
aF0.022173446081832
aF-0.9692035691439818
aF0.7772526683543788
aF0.5539155443627872
aF0.9083811977759731
aF0.9775562013671713
aF-0.3942315933808944
aF-0.3607182543930104
aF-1.1661758070123098
aF-0.2966199776863855
aF0.5193592729390262
asg9
(lp603
F-0.0019405544411650322
aF0.12355932180171122
aF-0.31163958040934003
aF1.0559903957816994
aF1.6545805943418936
aF0.30045093947657964
aF0.8206278638630587
aF0.6865856110519982
aF0.791022967744553
aF-0.6623056995092759
aF-1.432204966511434
aF-0.1856272017840958
aF-0.7672834039042316
aF-0.8032053172915561
asg11
g1
(g12
g3
Ntp604
Rp605
(dp606
g16
(F-0.0
F0.0
F-1.0
tp607
sbsbag1
(g2
g3
Ntp608
Rp609
(dp610
g7
(lp611
F-0.721691746117891
aF-0.23728643727432003
aF1.1834977614386155
aF-1.233356539817891
aF-0.16368624981091795
aF0.1446169522903889
aF0.35833282304457953
aF0.5794933741228447
aF0.9037439047672515
aF-0.24509898919966297
aF0.24645322876484144
aF-0.7756834386525234
aF-0.325737120497033
aF1.6859827901071345
asg9
(lp612
F-0.0019405544411650322
aF-0.23851132547172088
aF0.4192475210342218
aF0.7890806795722343
aF0.863198982899651
aF0.5620787421218213
aF0.621130778107073
aF0.4271408944819074
aF-0.46747030100931897
aF-0.04427359637793321
aF-0.6031477437765083
aF-0.5296208624326234
aF-0.8640893476347229
aF-0.45775930603005555
asg11
g1
(g12
g3
Ntp613
Rp614
(dp615
g16
(F-0.0
F0.0
F-1.0
tp616
sbsbag1
(g2
g3
Ntp617
Rp618
(dp619
g7
(lp620
F0.3000546552572597
aF-0.059136121082986604
aF1.6294162283067104
aF2.072499078905542
aF0.6482518129087131
aF0.3910579737166079
aF0.3711577968173893
aF0.3790913777125615
aF0.5578612258761887
aF-0.2926776939689042
aF0.6032748592796764
aF-0.38287742036682143
aF-0.0831838269850741
aF-1.3665168823445835
asg9
(lp621
F-0.0019405544411650322
aF-0.24337851897346652
aF0.9806356110861048
aF0.7014793621286681
aF0.7459477797230112
aF0.5620787421218213
aF2.0243531459446094
aF1.168039233373811
aF1.011651379949244
aF-0.479355062771978
aF-0.5087507303134448
aF-0.0030803086836520277
aF-0.8717644384235756
aF-0.7559829083337928
asg11
g1
(g12
g3
Ntp622
Rp623
(dp624
g16
(F0.0
F0.0
F-2.0
tp625
sbsbag1
(g2
g3
Ntp626
Rp627
(dp628
g7
(lp629
F-0.9896813330867241
aF0.5618931627158547
aF0.4032569890653066
aF0.7698163005668982
aF0.13089301597451664
aF0.6852285748801559
aF0.7035679727427194
aF0.25113961643005256
aF0.25015617819843106
aF-0.5874388343722724
aF-0.8271667905734755
aF-0.660440066550219
aF-0.28841534894297494
aF-0.18393143225012143
asg9
(lp630
F-0.0247081092238155
aF0.9803226888176798
aF0.5305197817721868
aF0.8817763827221605
aF0.8280805585848893
aF0.08310354343389714
aF0.8810981671001211
aF0.2856865236898657
aF0.21375594211510718
aF-0.7599566516977426
aF-0.7808988978535495
aF-0.08617122263821686
aF-0.959231444190591
aF-0.9135374698207801
asg11
g1
(g12
g3
Ntp631
Rp632
(dp633
g16
(F-0.0
F0.0
F-1.0
tp634
sbsbag1
(g2
g3
Ntp635
Rp636
(dp637
g7
(lp638
F-0.8280437826181776
aF0.5597909721045005
aF0.4537419717712926
aF1.1015886002103221
aF-0.6329016538137778
aF0.6499052166925425
aF0.13429686875414418
aF0.29809998709364527
aF-1.7672708995202981
aF1.9510904248434227
aF-0.9101819311767592
aF-0.6064130651010448
aF-0.30699614619167703
aF-0.15837153696636802
asg9
(lp639
F-0.02348471099531448
aF0.6919688859565607
aF1.0946999672361586
aF0.6379617402237105
aF0.7742024769768696
aF0.11391558579512609
aF-0.9934495267191366
aF0.3368254993265523
aF0.37556599783389527
aF-1.7675224771096953
aF-0.8219152430646917
aF-0.49318024695097484
aF-0.9321497053144108
aF-0.646585990250251
asg11
g1
(g12
g3
Ntp640
Rp641
(dp642
g16
(F-0.0
F0.0
F-1.0
tp643
sbsbag1
(g2
g3
Ntp644
Rp645
(dp646
g7
(lp647
F-0.2173507792360157
aF0.7719763228185033
aF1.530781179311969
aF0.28768923407719676
aF0.007535334434838822
aF1.2862353851680965
aF0.5756116074755697
aF-0.047342301288074165
aF0.8234878229792503
aF-0.20868953268136523
aF-0.17705174717377234
aF0.3546086175095351
aF0.30604146622067413
aF-0.7983978669769431
asg9
(lp648
F-0.016059052617324765
aF0.923744924266187
aF-0.021718447804016716
aF0.8323876439355753
aF0.8548691124721153
aF1.2224568383783343
aF0.9961669205510224
aF0.8429672893992294
aF0.14054724119719492
aF-0.2530603036797105
aF-0.7433414326789484
aF-0.08559657243366943
aF-0.8445481715848897
aF0.13297946433010893
asg11
g1
(g12
g3
Ntp649
Rp650
(dp651
g16
(F-0.0
F0.0
F-1.0
tp652
sbsbag1
(g2
g3
Ntp653
Rp654
(dp655
g7
(lp656
F-0.9896813330867241
aF0.8659533420295185
aF0.4032569890653066
aF-0.5434526619111563
aF0.13089301597451664
aF0.813986943925314
aF1.7626320116723715
aF0.25113961643005256
aF0.24982899086427535
aF-0.5874388343722724
aF-0.8271667905734755
aF-0.660440066550219
aF-0.28841534894297494
aF-0.18393143225012143
asg9
(lp657
F-0.0247081092238155
aF0.8173095136655846
aF0.5305197817721868
aF1.0769401675209995
aF0.8280805585848893
aF0.08310354343389714
aF1.6146627951408945
aF0.2856865236898657
aF0.7415572759632714
aF-1.4114361543400282
aF-0.8994572293206414
aF0.43476067350697367
aF-0.959231444190591
aF-0.9135374698207801
asg11
g1
(g12
g3
Ntp658
Rp659
(dp660
g16
(F-0.0
F0.0
F-1.0
tp661
sbsbag1
(g2
g3
Ntp662
Rp663
(dp664
g7
(lp665
F-0.8280437826181776
aF0.5597909721045005
aF0.4537419717712926
aF1.1015886002103221
aF-0.6329016538137778
aF0.6499052166925425
aF0.13429686875414418
aF0.29809998709364527
aF-1.7672708995202981
aF1.9510904248434227
aF-0.9101819311767592
aF-0.6064130651010448
aF-0.30699614619167703
aF-0.15837153696636802
asg9
(lp666
F-0.02348471099531448
aF0.6919688859565607
aF1.0946999672361586
aF0.6379617402237105
aF0.7742024769768696
aF0.11391558579512609
aF-0.9934495267191366
aF0.3368254993265523
aF0.37556599783389527
aF-1.7675224771096953
aF-0.8219152430646917
aF-0.49318024695097484
aF-0.9321497053144108
aF-0.646585990250251
asg11
g1
(g12
g3
Ntp667
Rp668
(dp669
g16
g643
sbsbag1
(g2
g3
Ntp670
Rp671
(dp672
g7
(lp673
F-0.8934699883758006
aF1.2883998205265157
aF1.530781179311969
aF0.28768923407719676
aF0.007535334434838822
aF1.0057077563759156
aF0.5756116074755697
aF0.14989876600860674
aF-0.37397358595325325
aF0.7191152512976189
aF-0.08582824624420726
aF0.3546086175095351
aF0.30604146622067413
aF-0.5138819591190477
asg9
(lp674
F-0.016059052617324765
aF0.923744924266187
aF-0.021718447804016716
aF0.7027107861143425
aF0.8548691124721153
aF1.2224568383783343
aF0.9961669205510224
aF0.8429672893992294
aF-0.0303768018755462
aF-0.04830378203416072
aF-0.7433414326789484
aF-0.08559657243366943
aF-0.8193193677414465
aF0.02762555691416904
asg11
g1
(g12
g3
Ntp675
Rp676
(dp677
g16
(F-0.0
F0.0
F-1.0
tp678
sbsbag1
(g2
g3
Ntp679
Rp680
(dp681
g7
(lp682
F-1.114114101452576
aF1.1238946183851575
aF0.21354256687065873
aF1.6358306169005827
aF-0.24244826457242674
aF0.8635121955463773
aF0.12657158476528335
aF0.48111862598448474
aF0.6606493575262251
aF2.0215079266986153
aF-1.825747206439502
aF-0.6591384689946137
aF0.4076481989889441
aF0.6574772570936867
asg9
(lp683
F-0.016782726848580898
aF0.9902578695985156
aF0.5247224170905646
aF0.5938211105909063
aF0.8045540721003526
aF-0.6097617856633913
aF-0.3545836821908159
aF-0.4995029229824988
aF0.1431933742712771
aF-0.36927406169302734
aF-0.708052639438427
aF-0.12252026389660539
aF-0.9861611647997657
aF-0.5360134376834148
asg11
g1
(g12
g3
Ntp684
Rp685
(dp686
g16
(F-0.0
F0.0
F-1.0
tp687
sbsbag1
(g2
g3
Ntp688
Rp689
(dp690
g7
(lp691
F-0.3814405819470373
aF1.4499990524511448
aF0.6687122669488724
aF0.6260410248174648
aF0.47734195729930834
aF1.2306263703422888
aF0.8346572033217852
aF-0.6877137768286259
aF-2.756673218974009
aF-0.5057785793312779
aF-0.6119655963791604
aF-0.642876013343155
aF-0.9218701463326282
aF0.9725744928504078
asg9
(lp692
F-0.013938744909353134
aF0.21327458366528482
aF1.1891838190597503
aF0.8572420068256568
aF0.5865269548999698
aF0.04616753799795184
aF0.43910664362682317
aF0.9070285139862522
aF0.25560210862366545
aF-1.5760994521849412
aF-0.9055313953128741
aF-1.5102256850946518
aF-0.34034154824149915
aF-1.4504572084376928
asg11
g1
(g12
g3
Ntp693
Rp694
(dp695
g16
(F-0.0
F0.0
F-1.0
tp696
sbsbag1
(g2
g3
Ntp697
Rp698
(dp699
g7
(lp700
F-1.0130836778404275
aF0.6849334822152457
aF0.015692010588043592
aF0.7701206141612109
aF-0.3894337252920941
aF2.835033502949216
aF0.8896629233229956
aF-0.11303616530204397
aF0.8134023893937443
aF0.05010724858676761
aF-0.5790028517302712
aF-0.7185729384535919
aF0.07156192419619957
aF-0.21085544102885057
asg9
(lp701
F-2.449716701966171
aF0.83240056266121
aF-0.3469799104772195
aF0.5565065917458942
aF0.8440430072376843
aF0.7457809272137471
aF1.33041787736292
aF0.4262258077300015
aF0.49063181752931595
aF-0.12250905259747519
aF-0.771621734895336
aF-0.4472931163783339
aF-0.0537539060465817
aF-1.2556919164287408
asg11
g1
(g12
g3
Ntp702
Rp703
(dp704
g16
(F-0.0
F0.0
F-1.0
tp705
sbsbag1
(g2
g3
Ntp706
Rp707
(dp708
g7
(lp709
F-1.243726616646248
aF1.1883086679413823
aF-0.8444543689283909
aF0.5553756015570179
aF-0.1657808298448078
aF0.677105707614569
aF0.34313062783016113
aF0.28662018906724096
aF-1.5114566617960672
aF1.0844476378529626
aF-0.89098532251903
aF-0.7554234912930178
aF-0.9358621401819895
aF-0.1523482523785198
asg9
(lp710
F-0.025235291242346358
aF0.779038828390531
aF0.91297542449298
aF1.0061088597714025
aF0.5838385959365415
aF0.5803790101547004
aF-0.37823722977695373
aF-0.5649528145584415
aF0.4082708195141059
aF-1.8433408778742453
aF-0.764794494192086
aF-0.24150441995805122
aF-0.9236488338523792
aF-0.872561566012713
asg11
g1
(g12
g3
Ntp711
Rp712
(dp713
g16
(F-0.0
F0.0
F-2.0
tp714
sbsbag1
(g2
g3
Ntp715
Rp716
(dp717
g7
(lp718
F-0.001479512462525534
aF0.33427998201366005
aF0.35704073130717395
aF0.8476390161043696
aF0.47789014067047086
aF0.09780952236557083
aF0.03757689231719785
aF0.3233954015227135
aF0.635255970975996
aF-0.9554048956020047
aF-0.1181656127862889
aF-0.28656847449907574
aF-0.5429071709339092
aF-0.05990504756535875
asg9
(lp719
F-0.22215034964136737
aF0.4328489722877926
aF0.33970109557051675
aF0.6803209165002808
aF0.7346290219152894
aF0.4915269302967128
aF0.04158330990622994
aF0.7865305303210498
aF0.3513655872572359
aF-0.564610679163525
aF-0.03386007602730534
aF-0.17302755473588294
aF-0.0895670930955238
aF-0.07905022319077026
asg11
g1
(g12
g3
Ntp720
Rp721
(dp722
g16
(F-0.0
F0.0
F-1.0
tp723
sbsbag1
(g2
g3
Ntp724
Rp725
(dp726
g7
(lp727
F0.033303396444095114
aF0.33427998201366005
aF-0.13628604875539074
aF0.476625702575287
aF0.47789014067047086
aF0.09780952236557083
aF0.03757689231719785
aF-0.09120802115576243
aF0.9157773362325694
aF-0.5352913140137741
aF-0.5009431253844091
aF-1.2027735032933444
aF-0.5865486368355148
aF-0.05438054009084271
asg9
(lp728
F0.007110543626349373
aF0.4328489722877926
aF0.33970109557051675
aF0.6803209165002808
aF0.6334028529244033
aF0.4915269302967128
aF0.04158330990622994
aF0.7865305303210499
aF0.3513655872572359
aF-0.564610679163525
aF-0.03386007602730534
aF-0.17302755473588294
aF-0.0895670930955238
aF-0.07905022319077026
asg11
g1
(g12
g3
Ntp729
Rp730
(dp731
g16
(F-0.0
F0.0
F-1.0
tp732
sbsbag1
(g2
g3
Ntp733
Rp734
(dp735
g7
(lp736
F-0.001479512462525534
aF0.33427998201366005
aF0.35704073130717395
aF0.06713419735735793
aF1.000981286656745
aF0.09780952236557083
aF-0.8696261778417623
aF0.3233954015227135
aF1.2557851816487795
aF-1.2688646450721257
aF-0.1181656127862889
aF-0.28656847449907574
aF-0.5429071709339092
aF0.43254873342534617
asg9
(lp737
F-1.4396780355298935
aF0.4328489722877926
aF0.33970109557051675
aF0.9860999864188831
aF0.7346290219152894
aF0.4915269302967128
aF0.32261791744744084
aF0.7865305303210498
aF0.3513655872572359
aF-0.564610679163525
aF-0.1576228004812318
aF-0.19361158647672608
aF-0.5909535379657561
aF-0.07905022319077026
asg11
g1
(g12
g3
Ntp738
Rp739
(dp740
g16
(F-0.0
F0.0
F-1.0
tp741
sbsbag1
(g2
g3
Ntp742
Rp743
(dp744
g7
(lp745
F-0.001479512462525534
aF0.4650858617269804
aF0.35704073130717395
aF0.6503940540090369
aF0.5679245216970117
aF0.25180706748341014
aF-1.108146176058918
aF0.3233954015227135
aF-0.3002897664952774
aF-1.2935452876344862
aF-0.28722365866903066
aF-0.30929536881076947
aF-0.5429071709339092
aF0.5546396287425568
asg9
(lp746
F-1.6701558088905613
aF0.5071095024210924
aF0.33970109557051675
aF0.5192680977720371
aF0.7346290219152894
aF0.49152693029671274
aF0.3593958858301214
aF0.7596151398848409
aF0.3513655872572359
aF0.06756299860696656
aF-0.01285162845631501
aF-0.1785601146255521
aF-0.41775939548933655
aF-0.2730740622735459
asg11
g1
(g12
g3
Ntp747
Rp748
(dp749
g16
(F-0.0
F0.0
F-1.0
tp750
sbsbag1
(g2
g3
Ntp751
Rp752
(dp753
g7
(lp754
F-0.001479512462525534
aF0.3404998410921707
aF0.35704073130717395
aF0.2592900539921448
aF0.9109469056302041
aF-0.4368346427139085
aF0.2760968905343536
aF0.3233954015227135
aF1.6489064139883884
aF-1.0262401349577428
aF-0.1512968556979473
aF-0.6375998947650567
aF-0.5429071709339092
aF-0.18199594288256937
asg9
(lp755
F-0.04200874972749463
aF0.16555269101776968
aF0.33970109557051675
aF1.1160738046520176
aF0.7346290219152894
aF0.49152693029671274
aF0.004805341523549396
aF0.7930483446545243
aF0.3513655872572359
aF-0.7218496044133159
aF-0.17863124805222214
aF-0.1880790265870569
aF-0.26276123557194336
aF-0.36515862214589595
asg11
g1
(g12
g3
Ntp756
Rp757
(dp758
g16
(F-0.0
F0.0
F-2.0
tp759
sbsbag1
(g2
g3
Ntp760
Rp761
(dp762
g7
(lp763
F0.013483117980680599
aF0.33427998201366005
aF0.5642414361838901
aF-0.05877748216405253
aF1.254020585366651
aF0.09780952236557083
aF-0.8860266831153882
aF0.13426569361406956
aF0.9510885943246469
aF-0.7028570877865
aF-0.2730739881695803
aF-0.8554791897858163
aF-0.5305572053544358
aF0.3937668440574576
asg9
(lp764
F-0.7853215527372026
aF0.4328489722877926
aF0.33970109557051675
aF0.7004199978088501
aF0.7092172223715719
aF0.4915269302967128
aF0.44701640303378665
aF0.7865305303210499
aF0.3513655872572359
aF-0.564610679163525
aF-0.07775388885290194
aF-0.1836528830854487
aF-0.17298350664971857
aF-0.07905022319077026
asg11
g1
(g12
g3
Ntp765
Rp766
(dp767
g16
(F-0.0
F0.0
F-1.0
tp768
sbsbag1
(g2
g3
Ntp769
Rp770
(dp771
g7
(lp772
F0.01834076600088898
aF0.33427998201366005
aF-0.34348675363210684
aF0.6025373820966975
aF0.22485084196056465
aF0.09780952236557083
aF0.05397739759082382
aF0.09792168675288151
aF1.220473923556702
aF-1.1012988712993996
aF-0.3460347500011177
aF-0.6338627880066039
aF-0.5988986024149883
aF-0.015598650722954167
asg9
(lp773
F-0.6472459391663414
aF0.4328489722877926
aF0.33970109557051675
aF0.9660009051103138
aF0.6588146524681209
aF0.4915269302967128
aF-0.0828151756801159
aF0.7865305303210498
aF0.3513655872572359
aF-0.564610679163525
aF-0.11372898765563522
aF-0.1829862581271603
aF-0.5075371244115613
aF-0.07905022319077026
asg11
g1
(g12
g3
Ntp774
Rp775
(dp776
g16
(F-0.0
F0.0
F-1.0
tp777
sbsbag1
(g2
g3
Ntp778
Rp779
(dp780
g7
(lp781
F-0.001479512462525534
aF0.33427998201366005
aF0.3212320381018172
aF1.6085516536782816
aF-0.05283572550101079
aF0.00383374650587405
aF0.03757689231719785
aF0.7967651500359301
aF0.635255970975996
aF-1.5196399707051258
aF-0.20794039925439164
aF-0.28656847449907574
aF0.2178874631395611
aF0.24455228354122166
asg9
(lp782
F-0.22215034964136737
aF0.6277268513293561
aF0.33970109557051675
aF0.6803209165002808
aF0.9297049971727867
aF1.155040697383166
aF0.10293479275010431
aF0.7865305303210498
aF0.3513655872572359
aF-0.4422939086290209
aF0.5363600364861477
aF-0.18280221794021875
aF-0.2246201135585095
aF0.35510446603778817
asg11
g1
(g12
g3
Ntp783
Rp784
(dp785
g16
(F-0.0
F0.0
F-1.0
tp786
sbsbag1
(g2
g3
Ntp787
Rp788
(dp789
g7
(lp790
F-0.10360599372987772
aF0.41501638279527264
aF-0.13628604875539074
aF0.476625702575287
aF0.47789014067047086
aF-0.48317892157492004
aF0.2390700876390891
aF0.4237902985882427
aF1.7040145391892705
aF-0.5352913140137741
aF-0.5009431253844091
aF-1.2027735032933444
aF-0.2587603061675745
aF-0.05438054009084271
asg9
(lp791
F0.007110543626349373
aF1.0490603903795854
aF0.33970109557051675
aF0.6803209165002808
aF0.6334028529244033
aF0.4915269302967128
aF0.15014209729481645
aF1.3183751599437976
aF0.5786294866364777
aF-0.564610679163525
aF-0.03386007602730534
aF-0.07743172996749594
aF-0.09883180068904335
aF-0.07905022319077026
asg11
g1
(g12
g3
Ntp792
Rp793
(dp794
g16
(F-0.0
F0.0
F-1.0
tp795
sbsbag1
(g2
g3
Ntp796
Rp797
(dp798
g7
(lp799
F-0.0013929481210502935
aF0.33427998201366005
aF-0.3356095581151143
aF0.2120858372985528
aF0.7086869213125572
aF0.09780952236557083
aF0.03757689231719785
aF-0.2695194577572436
aF0.19594970505803422
aF-0.39821182005920086
aF-0.09880183609432729
aF-0.5802123054163166
aF-0.26809044333596277
aF-0.36124509966659557
asg9
(lp800
F-0.39374273627240874
aF0.4328489722877926
aF0.4878433175927648
aF0.3753086721124954
aF1.137505246940785
aF0.9318507117130634
aF0.04158330990622994
aF0.7865305303210499
aF1.4481418054047488
aF-0.564610679163525
aF-0.03386007602730534
aF-0.17302755473588294
aF-0.0895670930955238
aF-0.4527861522996589
asg11
g1
(g12
g3
Ntp801
Rp802
(dp803
g16
(F-0.0
F0.0
F-1.0
tp804
sbsbag1
(g2
g3
Ntp805
Rp806
(dp807
g7
(lp808
F1.1024095104238238
aF0.35416736153706335
aF0.6541594201209209
aF0.45844392706754167
aF0.6875447710822877
aF0.39734794603652557
aF1.454573699897992
aF0.7394354365509426
aF0.5804987031931501
aF-0.5348009542717589
aF-0.5020675097230037
aF0.19856508622524605
aF-1.1823914883033892
aF0.9816404668717875
asg9
(lp809
F0.04826745037472568
aF0.5887199764375877
aF-0.21659338226672376
aF0.5221207585039305
aF0.359299445563127
aF0.9147445216095074
aF1.6882862306517359
aF1.9661198660285846
aF0.3613749378003674
aF0.5276480463368521
aF-0.21167888914506827
aF-0.09190967096958468
aF-0.34105620019243543
aF-1.02639061357326
asg11
g1
(g12
g3
Ntp810
Rp811
(dp812
g16
(F-0.0
F0.0
F-1.0
tp813
sbsbag1
(g2
g3
Ntp814
Rp815
(dp816
g7
(lp817
F-0.0829683543581129
aF0.8108469728341058
aF0.1117842457389655
aF0.5668137637256798
aF0.21801419983088544
aF0.4800886965195015
aF0.5483820406931497
aF0.42494444038225354
aF0.3622278153577345
aF-0.23435738691664632
aF-0.28736674566609377
aF-0.1827156975463512
aF-0.849066245251109
aF-0.38387338237600066
asg9
(lp818
F-0.0007731151596634955
aF0.7340273816152728
aF0.6484077894354311
aF0.05169282241193762
aF0.5530069618517868
aF0.16690666278159705
aF0.458857726835762
aF0.9542887121342073
aF0.285265149883678
aF-0.32934346028250105
aF-0.10730721663380594
aF-0.08633437236164976
aF-0.8042314133713412
aF-0.8130741545280756
asg11
g1
(g12
g3
Ntp819
Rp820
(dp821
g16
(F-0.0
F0.0
F-1.0
tp822
sbsbag1
(g2
g3
Ntp823
Rp824
(dp825
g7
(lp826
F-0.0829683543581129
aF0.8108469728341058
aF0.1117842457389655
aF0.5668137637256798
aF0.21801419983088544
aF0.4800886965195015
aF0.5483820406931497
aF0.42494444038225354
aF0.3622278153577345
aF-0.23435738691664632
aF-0.28736674566609377
aF-0.1827156975463512
aF-0.849066245251109
aF-0.38387338237600066
asg9
(lp827
F-0.0007731151596634955
aF0.7340273816152728
aF0.6484077894354311
aF0.05169282241193762
aF0.5530069618517868
aF0.16690666278159705
aF0.458857726835762
aF0.9542887121342073
aF0.285265149883678
aF-0.32934346028250105
aF-0.10730721663380594
aF-0.08633437236164976
aF-0.8042314133713412
aF-0.8130741545280756
asg11
g1
(g12
g3
Ntp828
Rp829
(dp830
g16
g822
sbsbag1
(g2
g3
Ntp831
Rp832
(dp833
g7
(lp834
F-1.0944625681119313
aF0.4933053743417275
aF0.1117842457389655
aF0.5668137637256798
aF0.564374856796126
aF0.4800886965195015
aF0.43689803119762466
aF0.42494444038225354
aF0.2278947808756006
aF-0.4640758845931896
aF-0.28736674566609377
aF-0.1827156975463512
aF-0.849066245251109
aF-0.38387338237600066
asg9
(lp835
F-0.0007731151596634955
aF-0.11876503070553002
aF-0.15590600456795578
aF-0.07361835401639194
aF0.5530069618517868
aF0.7523234597110053
aF0.42439414681251547
aF2.132765325853474
aF0.285265149883678
aF-0.32934346028250105
aF-0.06578904929742894
aF-0.08633437236164976
aF-0.5369588328045154
aF-0.4517380777751536
asg11
g1
(g12
g3
Ntp836
Rp837
(dp838
g16
(F-0.0
F0.0
F-1.0
tp839
sbsbag1
(g2
g3
Ntp840
Rp841
(dp842
g7
(lp843
F-0.0829683543581129
aF0.8108469728341058
aF0.1117842457389655
aF0.5668137637256798
aF0.21801419983088544
aF0.48008869651950153
aF0.5483820406931497
aF0.42494444038225354
aF0.3622278153577345
aF-0.23435738691664632
aF-0.28736674566609377
aF-0.1827156975463512
aF-0.8490662452511089
aF-0.38387338237600066
asg9
(lp844
F-0.0007731151596634955
aF0.7340273816152728
aF0.6484077894354311
aF0.05169282241193763
aF0.5530069618517868
aF0.16690666278159705
aF0.458857726835762
aF0.9542887121342073
aF0.285265149883678
aF-0.32934346028250105
aF-0.10730721663380594
aF-0.08633437236164976
aF-0.8042314133713412
aF-0.8130741545280756
asg11
g1
(g12
g3
Ntp845
Rp846
(dp847
g16
(F-0.0
F0.0
F-2.0
tp848
sbsbag1
(g2
g3
Ntp849
Rp850
(dp851
g7
(lp852
F1.1092543988117485
aF0.8108469728341058
aF0.08582777220587423
aF0.44714837581543254
aF1.1129928586438134
aF0.48008869651950153
aF0.5483820406931497
aF0.42494444038225354
aF0.3622278153577345
aF-0.2412639125067872
aF-0.28736674566609377
aF-0.3292230639867385
aF-1.6014615093062385
aF-0.57799914985755
asg9
(lp853
F-0.0007731151596634955
aF1.034260420548996
aF1.2419167488733527
aF0.05169282241193763
aF0.3080849970206336
aF0.16690666278159705
aF-0.03155554651306197
aF0.9542887121342073
aF0.5855699425026487
aF-0.32934346028250105
aF-0.10730721663380594
aF-0.08633437236164976
aF-0.8042314133713412
aF-0.8130741545280756
asg11
g1
(g12
g3
Ntp854
Rp855
(dp856
g16
(F-0.0
F0.0
F-1.0
tp857
sbsbag1
(g2
g3
Ntp858
Rp859
(dp860
g7
(lp861
F-0.1559945602184088
aF0.7627429159569467
aF0.11178424573896549
aF0.5668137637256798
aF0.07676782652234454
aF0.4800886965195015
aF0.517505778633927
aF0.42494444038225354
aF0.3288000097044774
aF-0.5006669826363102
aF-0.28736674566609377
aF-0.1827156975463512
aF-0.849066245251109
aF-0.38387338237600066
asg9
(lp862
F-0.0007731151596634955
aF0.023993262610263175
aF0.904470097004397
aF0.06539984928912576
aF0.5530069618517868
aF0.5745981900300261
aF0.4337998236486097
aF2.450202878718161
aF0.285265149883678
aF-0.32934346028250105
aF-0.07577506126533642
aF-0.08633437236164976
aF-0.8958226552268458
aF-0.547181001035967
asg11
g1
(g12
g3
Ntp863
Rp864
(dp865
g16
(F-0.0
F0.0
F-1.0
tp866
sbsbag1
(g2
g3
Ntp867
Rp868
(dp869
g7
(lp870
F0.21072991547483316
aF0.8741422023314903
aF0.9073006691109162
aF0.5668137637256798
aF0.37227059864657364
aF0.4921706049681262
aF0.5844583779900251
aF0.42494444038225354
aF0.33865730266910243
aF-1.3307837321188982
aF-0.5396962646067514
aF-0.1827156975463512
aF-0.48467256219278243
aF-0.24722655989409437
asg9
(lp871
F-0.0007731151596634955
aF-0.21818390507592708
aF0.522916182314108
aF0.6936435017966192
aF0.5530069618517868
aF0.545050589408417
aF1.019444377179438
aF0.5439191751619138
aF1.0385720994928973
aF-0.32934346028250105
aF0.044570109379161366
aF-0.08633437236164976
aF-0.6580907228620432
aF-0.30879378681972225
asg11
g1
(g12
g3
Ntp872
Rp873
(dp874
g16
(F-0.0
F0.0
F-1.0
tp875
sbsbag1
(g2
g3
Ntp876
Rp877
(dp878
g7
(lp879
F-0.35185592346597794
aF0.1577789033286121
aF0.9852875997228876
aF0.4556602757888361
aF-0.7031446297911225
aF0.24795221453584387
aF-0.01925194953448764
aF0.838371617795175
aF0.33262570572229205
aF0.3162891802104906
aF-0.28967499084315224
aF-0.4243718899057417
aF-1.6178399363590288
aF-0.44228101401954234
asg9
(lp880
F0.009625897317858022
aF0.7160966664966936
aF-0.5072396961727509
aF-0.35184158509856184
aF1.375725124422713
aF0.7472277477462052
aF2.0586417629906233
aF1.1793156946566132
aF1.0337970597223782
aF-0.02936414082808414
aF-0.4016360657105337
aF-0.9659955521665936
aF-0.7139472188527642
aF-0.432557935579371
asg11
g1
(g12
g3
Ntp881
Rp882
(dp883
g16
(F-0.0
F0.0
F-2.0
tp884
sbsbag1
(g2
g3
Ntp885
Rp886
(dp887
g7
(lp888
F-0.2976422177145616
aF0.1069992502796957
aF0.8279960145304559
aF0.21187389300126247
aF2.7166953827802347
aF0.40108787914155486
aF0.008646941273162151
aF1.2067346366812526
aF0.638717776951435
aF0.3641957782512695
aF-0.10935876283137642
aF0.03167878670136453
aF-0.9161899557087667
aF-0.14090964911974707
asg9
(lp889
F0.02694935991991663
aF1.2784806003896785
aF1.806624931322158
aF0.06560485229534611
aF0.45204066943204146
aF0.02869980631547798
aF0.9848275359124087
aF1.3595049330312596
aF-0.03329431836788006
aF-0.6641131932535468
aF-0.13474765849566683
aF1.0840258579810553
aF-0.2215747318799746
aF0.24731344588378582
asg11
g1
(g12
g3
Ntp890
Rp891
(dp892
g16
(F-0.0
F0.0
F-1.0
tp893
sbsbag1
(g2
g3
Ntp894
Rp895
(dp896
g7
(lp897
F-0.6140414277563847
aF1.7963583394978053
aF-0.008817134300850238
aF0.06722505948467439
aF0.5371725012192005
aF0.48425703256297375
aF0.9723821441236389
aF0.4248212598792715
aF-0.2631266872816358
aF-0.2389060393927224
aF-0.24219181381537908
aF-0.15223959689442457
aF-1.2505018384676803
aF-0.896509477064982
asg9
(lp898
F-0.0007731151596634955
aF-0.6077411994793296
aF0.988681327082082
aF-0.5159341008279523
aF0.3291532343563199
aF0.2764897561263052
aF0.6411410058064478
aF1.9064255719448626
aF0.3760746402117878
aF-0.7560610601154386
aF-0.5449367946561888
aF-0.2562823104735965
aF-0.24213573514167613
aF-0.7393547519259058
asg11
g1
(g12
g3
Ntp899
Rp900
(dp901
g16
(F-0.0
F0.0
F-2.0
tp902
sbsbag1
(g2
g3
Ntp903
Rp904
(dp905
g7
(lp906
F-1.4743451285082771
aF0.2027449871625236
aF0.7839595676908855
aF0.5647969353274342
aF-0.41134657382791623
aF0.4464917466200849
aF0.3196669369213704
aF0.4257604557913698
aF0.8778156884743213
aF-0.8969660506895867
aF-1.3579895343037713
aF-1.1010997298629177
aF-0.9387019896466156
aF-0.018748729246867712
asg9
(lp907
F-0.0007731151596634955
aF-0.6395450468560402
aF0.9383409336920987
aF-1.2367680316405525
aF0.5564444340473373
aF-0.7787103854811656
aF-0.3546821887721066
aF2.2003690126685793
aF-0.5314967183354625
aF-0.7220874302291942
aF1.7453123816779077
aF0.6195167250045682
aF-0.9590532128075464
aF-0.9408257291610486
asg11
g1
(g12
g3
Ntp908
Rp909
(dp910
g16
(F-0.0
F0.0
F-2.0
tp911
sbsbag1
(g2
g3
Ntp912
Rp913
(dp914
g7
(lp915
F-0.2694799445514881
aF0.5881784851007241
aF0.4620807194601076
aF0.3981417501025114
aF0.5555275181964473
aF0.2467943359161175
aF1.3201685414647044
aF1.9761386696728442
aF-0.03590248234039435
aF-0.5417136518623429
aF-0.728921107294632
aF0.7636282401940842
aF-0.9051408488467846
aF-0.4032451490275896
asg9
(lp916
F-0.0007731151596634955
aF0.6146926407407681
aF2.8077959625862325
aF0.08401191821273248
aF1.852847505602612
aF0.3133924432106516
aF0.4447530912743206
aF1.3615722461143736
aF0.7507441018270276
aF-0.2718174492262857
aF-0.21204245051758736
aF-0.22952939172842238
aF-0.6803384884875592
aF-0.7264581601704498
asg11
g1
(g12
g3
Ntp917
Rp918
(dp919
g16
(F-0.0
F0.0
F-2.0
tp920
sbsbag1
(g2
g3
Ntp921
Rp922
(dp923
g7
(lp924
F-0.0829683543581129
aF0.8108469728341058
aF0.1117842457389655
aF0.5668137637256798
aF0.21801419983088544
aF0.4800886965195015
aF0.5483820406931497
aF0.42494444038225354
aF0.3622278153577345
aF-0.23435738691664632
aF-0.28736674566609377
aF-0.1827156975463512
aF-0.849066245251109
aF-0.38387338237600066
asg9
(lp925
F-0.0007731151596634955
aF0.7340273816152728
aF0.6484077894354311
aF0.05169282241193762
aF0.5530069618517868
aF0.16690666278159705
aF0.458857726835762
aF0.9542887121342073
aF0.285265149883678
aF-0.32934346028250105
aF-0.10730721663380594
aF-0.08633437236164976
aF-0.8042314133713412
aF-0.8130741545280756
asg11
g1
(g12
g3
Ntp926
Rp927
(dp928
g16
(F-0.0
F0.0
F-1.0
tp929
sbsbag1
(g2
g3
Ntp930
Rp931
(dp932
g7
(lp933
F-0.0829683543581129
aF0.8108469728341058
aF0.1117842457389655
aF0.5668137637256798
aF0.21801419983088544
aF0.4800886965195015
aF0.5483820406931497
aF0.42494444038225354
aF0.3622278153577345
aF-0.23435738691664632
aF-0.28736674566609377
aF-0.1827156975463512
aF-0.849066245251109
aF-0.38387338237600066
asg9
(lp934
F-0.0007731151596634955
aF0.7340273816152728
aF0.6484077894354311
aF0.05169282241193762
aF0.5530069618517868
aF0.16690666278159705
aF0.458857726835762
aF0.9542887121342073
aF0.285265149883678
aF-0.32934346028250105
aF-0.10730721663380594
aF-0.08633437236164976
aF-0.8042314133713412
aF-0.8130741545280756
asg11
g1
(g12
g3
Ntp935
Rp936
(dp937
g16
g929
sbsbag1
(g2
g3
Ntp938
Rp939
(dp940
g7
(lp941
F-1.0944625681119313
aF0.4933053743417275
aF0.1117842457389655
aF0.5668137637256798
aF0.564374856796126
aF0.4800886965195015
aF0.43689803119762466
aF0.42494444038225354
aF0.2278947808756006
aF-0.4640758845931896
aF-0.28736674566609377
aF-0.1827156975463512
aF-0.849066245251109
aF-0.38387338237600066
asg9
(lp942
F-0.0007731151596634955
aF-0.11876503070553002
aF-0.15590600456795578
aF-0.07361835401639194
aF0.5530069618517868
aF0.7523234597110053
aF0.42439414681251547
aF2.132765325853474
aF0.285265149883678
aF-0.32934346028250105
aF-0.06578904929742894
aF-0.08633437236164976
aF-0.5369588328045154
aF-0.4517380777751536
asg11
g1
(g12
g3
Ntp943
Rp944
(dp945
g16
(F-0.0
F0.0
F-1.0
tp946
sbsbag1
(g2
g3
Ntp947
Rp948
(dp949
g7
(lp950
F-0.0829683543581129
aF0.8108469728341058
aF0.1117842457389655
aF0.5668137637256798
aF0.21801419983088544
aF0.4800886965195015
aF0.5483820406931497
aF0.42494444038225354
aF0.3622278153577345
aF-0.23435738691664632
aF-0.28736674566609377
aF-0.1827156975463512
aF-0.849066245251109
aF-0.38387338237600066
asg9
(lp951
F-0.0007731151596634955
aF0.7340273816152728
aF0.6484077894354311
aF0.05169282241193762
aF0.5530069618517868
aF0.16690666278159705
aF0.458857726835762
aF0.9542887121342073
aF0.285265149883678
aF-0.32934346028250105
aF-0.10730721663380594
aF-0.08633437236164976
aF-0.8042314133713412
aF-0.8130741545280756
asg11
g1
(g12
g3
Ntp952
Rp953
(dp954
g16
g929
sbsbag1
(g2
g3
Ntp955
Rp956
(dp957
g7
(lp958
F-0.0829683543581129
aF0.8108469728341058
aF0.1117842457389655
aF0.5668137637256798
aF0.21801419983088544
aF0.4800886965195015
aF0.5483820406931497
aF0.42494444038225354
aF0.3622278153577345
aF-0.23435738691664632
aF-0.28736674566609377
aF-0.1827156975463512
aF-0.849066245251109
aF-0.38387338237600066
asg9
(lp959
F-0.0007731151596634955
aF0.7340273816152728
aF0.6484077894354311
aF0.05169282241193762
aF0.5530069618517868
aF0.16690666278159705
aF0.458857726835762
aF0.9542887121342073
aF0.285265149883678
aF-0.32934346028250105
aF-0.10730721663380594
aF-0.08633437236164976
aF-0.8042314133713412
aF-0.8130741545280756
asg11
g1
(g12
g3
Ntp960
Rp961
(dp962
g16
g929
sbsbag1
(g2
g3
Ntp963
Rp964
(dp965
g7
(lp966
F-1.0944625681119313
aF0.4933053743417275
aF0.1117842457389655
aF0.5668137637256798
aF0.564374856796126
aF0.4800886965195015
aF0.43689803119762466
aF0.42494444038225354
aF0.2278947808756006
aF-0.4640758845931896
aF-0.28736674566609377
aF-0.1827156975463512
aF-0.849066245251109
aF-0.38387338237600066
asg9
(lp967
F-0.0007731151596634955
aF-0.11876503070553002
aF-0.15590600456795578
aF-0.07361835401639194
aF0.5530069618517868
aF0.7523234597110053
aF0.42439414681251547
aF2.132765325853474
aF0.285265149883678
aF-0.32934346028250105
aF-0.06578904929742894
aF-0.08633437236164976
aF-0.5369588328045154
aF-0.4517380777751536
asg11
g1
(g12
g3
Ntp968
Rp969
(dp970
g16
g946
sbsbag1
(g2
g3
Ntp971
Rp972
(dp973
g7
(lp974
F-0.0829683543581129
aF1.517207934458379
aF0.48253408862719105
aF0.7018955853146499
aF0.21801419983088544
aF0.4800886965195015
aF0.5483820406931497
aF0.42494444038225354
aF0.3622278153577345
aF-0.8867362280590577
aF-0.4003692695992397
aF-0.1827156975463512
aF-0.849066245251109
aF-0.38387338237600066
asg9
(lp975
F-0.0007731151596634955
aF0.9721427791112398
aF0.6484077894354311
aF0.05169282241193762
aF0.5530069618517868
aF0.16690666278159705
aF0.458857726835762
aF0.9542887121342073
aF0.285265149883678
aF-0.32934346028250105
aF-0.10730721663380594
aF-0.08633437236164976
aF-0.8042314133713412
aF-0.8130741545280756
asg11
g1
(g12
g3
Ntp976
Rp977
(dp978
g16
(F-0.0
F0.0
F-1.0
tp979
sbsbag1
(g2
g3
Ntp980
Rp981
(dp982
g7
(lp983
F0.8663081211203209
aF2.0072917771469827
aF0.2100273181551724
aF0.5867134212206007
aF0.025749256957680156
aF-0.007777463550225849
aF0.36120697107240085
aF0.2916610980990567
aF0.22062120589491252
aF-0.23139601084501138
aF-0.21516810281210158
aF-0.18271569754635122
aF-0.7036594013183708
aF-0.3261848040314423
asg9
(lp984
F-0.0007731151596634955
aF0.567109285314203
aF0.07811294427307133
aF-0.3609536790367188
aF0.18013352980807457
aF0.18384596910579917
aF0.39371967269630276
aF0.9627617679623349
aF0.285265149883678
aF-0.33851964168154114
aF-0.08126026795163625
aF-0.08633437236164976
aF-0.7073596446374333
aF-0.8881639879892615
asg11
g1
(g12
g3
Ntp985
Rp986
(dp987
g16
(F-0.0
F0.0
F-1.0
tp988
sbsbag1
(g2
g3
Ntp989
Rp990
(dp991
g7
(lp992
F-0.12099198748700377
aF0.43830943123637955
aF0.6594395052492454
aF0.5610819119532146
aF0.8581489576615035
aF0.10456263024265644
aF0.42481135633225503
aF1.1257275699914204
aF0.3316204291632155
aF-0.2524110582495566
aF-0.6266595127088799
aF-0.18271569754635122
aF-1.3339703203989592
aF-0.5692049947902412
asg9
(lp993
F-0.0007731151596634956
aF0.51114685897935
aF0.9378451587471379
aF0.7507683875821126
aF0.19804755993412668
aF1.756966076707917
aF-0.49604958992104137
aF2.21607158369076
aF0.285265149883678
aF-0.34183812639363276
aF-0.4739066052944422
aF-0.5005584478663325
aF-1.4695904792033732
aF-1.267408189805528
asg11
g1
(g12
g3
Ntp994
Rp995
(dp996
g16
(F-0.0
F0.0
F-1.0
tp997
sbsbag1
(g2
g3
Ntp998
Rp999
(dp1000
g7
(lp1001
F-1.3462009385909126
aF0.3962576521896654
aF-0.08827420204142128
aF0.8222941022465303
aF0.11650504183871316
aF0.3451522565550898
aF0.4782837697982917
aF0.42494444038225354
aF1.090421602459893
aF-0.5024647227205843
aF-0.2757094168155472
aF-0.1827156975463512
aF-0.7511753993279299
aF-0.38387338237600066
asg9
(lp1002
F-0.0007731151596634956
aF0.2710335882314625
aF-0.24331201951466103
aF-0.06563155121533613
aF2.0571521253799037
aF-0.07182530725696479
aF0.4752574285523021
aF1.6502023209956618
aF0.285265149883678
aF-0.32934346028250105
aF-0.12716382604953463
aF-0.08633437236164976
aF-0.7161742173854471
aF-0.5840811036120794
asg11
g1
(g12
g3
Ntp1003
Rp1004
(dp1005
g16
(F-0.0
F0.0
F-1.0
tp1006
sbsbag1
(g2
g3
Ntp1007
Rp1008
(dp1009
g7
(lp1010
F-0.0829683543581129
aF0.8108469728341058
aF-0.7327982815306946
aF0.5668137637256798
aF0.5810672681187521
aF0.4800886965195015
aF-0.2974803403605467
aF0.42494444038225354
aF0.3622278153577345
aF-0.4384477309740754
aF-0.28736674566609377
aF-0.5331383518030746
aF-0.849066245251109
aF-0.38387338237600066
asg9
(lp1011
F-0.0007731151596634955
aF0.7340273816152728
aF0.6484077894354311
aF-0.12121212207894147
aF0.5530069618517868
aF-0.47481484656387507
aF0.458857726835762
aF0.9792536413620797
aF0.285265149883678
aF-0.32934346028250105
aF-0.8246572910591201
aF-0.08633437236164976
aF-0.8042314133713412
aF-0.8130741545280756
asg11
g1
(g12
g3
Ntp1012
Rp1013
(dp1014
g16
(F-0.0
F0.0
F-1.0
tp1015
sbsbag1
(g2
g3
Ntp1016
Rp1017
(dp1018
g7
(lp1019
F-1.9713030474308462
aF0.6464945018108701
aF0.39264429792940253
aF0.11278884762977248
aF0.28553247875788645
aF0.6295100531068757
aF-0.5439728757762605
aF0.2853068085737507
aF0.233016656901715
aF-0.25258785785825466
aF-0.2078960401653121
aF-0.6823545230371342
aF-0.7289168698353615
aF-1.1898207940330205
asg9
(lp1020
F-0.0007731151596634955
aF0.3622496084862591
aF-0.42185076878568906
aF-0.6270167903008343
aF0.5530069618517868
aF0.8302782191741945
aF0.3411706757647399
aF1.8622755553500545
aF0.285265149883678
aF-0.33401426180996696
aF-0.3951688229186395
aF0.5086288883346091
aF-0.859997477989135
aF-1.2197741756592382
asg11
g1
(g12
g3
Ntp1021
Rp1022
(dp1023
g16
(F-0.0
F0.0
F-1.0
tp1024
sbsbag1
(g2
g3
Ntp1025
Rp1026
(dp1027
g7
(lp1028
F2.4196980843103546
aF-0.15272993430822773
aF0.03816603757033177
aF0.5112554414376594
aF-0.5536067960215567
aF0.8266815608177347
aF0.25475367114244607
aF0.2738231141983709
aF0.9681385339310848
aF-0.4310591051739143
aF-0.25217610590855466
aF-0.33591981644131375
aF-1.1426786543346423
aF0.4938312214551773
asg9
(lp1029
F-0.0007731151596634955
aF0.16074629939652918
aF0.04978413826935413
aF-0.753652864180727
aF1.468113522742379
aF0.6655789529106049
aF0.6594797296793545
aF0.5359286950033428
aF-0.45039656470728207
aF-0.5352064388332414
aF-0.060468330187592616
aF-0.048511726062976226
aF0.36898820140024813
aF-1.0116554905274808
asg11
g1
(g12
g3
Ntp1030
Rp1031
(dp1032
g16
(F-0.0
F0.0
F-1.0
tp1033
sbsbag1
(g2
g3
Ntp1034
Rp1035
(dp1036
g7
(lp1037
F-1.353921258179793
aF0.979105212154288
aF0.5288053434456097
aF0.5748387949702253
aF0.3858853920606663
aF0.42933523707331867
aF-0.6183644254474102
aF0.3676719429048223
aF1.2507552541982339
aF-0.2807393490138756
aF-0.9920632406734193
aF0.23677941226052687
aF-0.5120680341210321
aF-0.6026062585466728
asg9
(lp1038
F-0.0007731151596634955
aF-0.18449465240484353
aF0.6922037453502852
aF-0.1884121537682951
aF0.25912074254141465
aF0.10183280415738934
aF0.3043005002921977
aF1.00864078794111
aF0.1728138645527534
aF0.7593095927289448
aF0.8577610182279775
aF-0.04297358413223996
aF-1.3591721431865365
aF0.43288191023494627
asg11
g1
(g12
g3
Ntp1039
Rp1040
(dp1041
g16
(F-0.0
F0.0
F-2.0
tp1042
sbsbag1
(g2
g3
Ntp1043
Rp1044
(dp1045
g7
(lp1046
F-0.7934294000103486
aF0.622399223536505
aF0.33467203515251426
aF0.6005008392800493
aF0.5609766094049381
aF0.880833750356197
aF0.12177356114595833
aF0.5626091873339355
aF-3.159836798047963
aF-0.3396986384792147
aF-0.23543418504375382
aF-0.1333819613364451
aF-0.7326454618565836
aF-0.5966552510936838
asg9
(lp1047
F-0.0007731151596634955
aF-0.252749582253769
aF-0.5206550419140124
aF-0.33595995785529176
aF0.16254616305524594
aF0.2663224327530659
aF0.5639869030755122
aF1.156324473418751
aF0.2647999526004644
aF-0.3230220964167063
aF-0.7461051460558135
aF-0.020035310129147416
aF-0.932791747527373
aF-0.23140515406909157
asg11
g1
(g12
g3
Ntp1048
Rp1049
(dp1050
g16
(F-0.0
F0.0
F-1.0
tp1051
sbsbag1
(g2
g3
Ntp1052
Rp1053
(dp1054
g7
(lp1055
F-0.0829683543581129
aF0.8108469728341058
aF0.1117842457389655
aF0.5668137637256798
aF0.21801419983088544
aF0.4800886965195015
aF0.5483820406931497
aF0.42494444038225354
aF0.3622278153577345
aF-0.23435738691664632
aF-0.28736674566609377
aF-0.1827156975463512
aF-0.849066245251109
aF-0.38387338237600066
asg9
(lp1056
F-0.0007731151596634955
aF0.7340273816152728
aF0.6484077894354311
aF0.05169282241193762
aF0.5530069618517868
aF0.16690666278159705
aF0.458857726835762
aF0.9542887121342073
aF0.285265149883678
aF-0.32934346028250105
aF-0.10730721663380594
aF-0.08633437236164976
aF-0.8042314133713412
aF-0.8130741545280756
asg11
g1
(g12
g3
Ntp1057
Rp1058
(dp1059
g16
(F-0.0
F0.0
F-1.0
tp1060
sbsbag1
(g2
g3
Ntp1061
Rp1062
(dp1063
g7
(lp1064
F-0.0829683543581129
aF0.8108469728341058
aF0.1117842457389655
aF0.5668137637256798
aF0.21801419983088544
aF0.4800886965195015
aF0.5483820406931497
aF0.42494444038225354
aF0.3622278153577345
aF-0.23435738691664632
aF-0.28736674566609377
aF-0.1827156975463512
aF-0.849066245251109
aF-0.38387338237600066
asg9
(lp1065
F-0.0007731151596634955
aF0.7340273816152728
aF0.6484077894354311
aF0.05169282241193762
aF0.5530069618517868
aF0.16690666278159705
aF0.458857726835762
aF0.9542887121342073
aF0.285265149883678
aF-0.32934346028250105
aF-0.10730721663380594
aF-0.08633437236164976
aF-0.8042314133713412
aF-0.8130741545280756
asg11
g1
(g12
g3
Ntp1066
Rp1067
(dp1068
g16
g1060
sbsbag1
(g2
g3
Ntp1069
Rp1070
(dp1071
g7
(lp1072
F-1.0944625681119313
aF0.4933053743417275
aF0.1117842457389655
aF0.5668137637256798
aF0.564374856796126
aF0.4800886965195015
aF0.43689803119762466
aF0.42494444038225354
aF0.2278947808756006
aF-0.4640758845931896
aF-0.28736674566609377
aF-0.1827156975463512
aF-0.849066245251109
aF-0.38387338237600066
asg9
(lp1073
F-0.0007731151596634955
aF-0.11876503070553002
aF-0.15590600456795578
aF-0.07361835401639194
aF0.5530069618517868
aF0.7523234597110053
aF0.42439414681251547
aF2.132765325853474
aF0.285265149883678
aF-0.32934346028250105
aF-0.06578904929742894
aF-0.08633437236164976
aF-0.5369588328045154
aF-0.4517380777751536
asg11
g1
(g12
g3
Ntp1074
Rp1075
(dp1076
g16
(F-0.0
F0.0
F-1.0
tp1077
sbsbag1
(g2
g3
Ntp1078
Rp1079
(dp1080
g7
(lp1081
F-0.0829683543581129
aF0.8108469728341059
aF0.1117842457389655
aF0.5668137637256798
aF0.21801419983088544
aF0.4800886965195015
aF0.5483820406931497
aF0.42494444038225354
aF0.3622278153577345
aF-0.23435738691664632
aF-0.28736674566609377
aF-0.1827156975463512
aF-0.849066245251109
aF-0.38387338237600066
asg9
(lp1082
F-0.0007731151596634955
aF0.7340273816152728
aF0.6484077894354311
aF0.051692822411937615
aF0.5530069618517868
aF0.16690666278159705
aF0.458857726835762
aF0.9542887121342072
aF0.285265149883678
aF-0.32934346028250105
aF-0.10730721663380594
aF-0.08633437236164976
aF-0.8042314133713412
aF-0.8130741545280756
asg11
g1
(g12
g3
Ntp1083
Rp1084
(dp1085
g16
(F-0.0
F0.0
F-1.0
tp1086
sbsbag1
(g2
g3
Ntp1087
Rp1088
(dp1089
g7
(lp1090
F-0.0829683543581129
aF0.8108469728341059
aF-0.32989584365271823
aF0.18014150997091327
aF0.34065661155411603
aF0.4538501946794085
aF0.5483820406931497
aF1.084293744548388
aF0.3622278153577345
aF-0.23435738691664632
aF-1.2841853365993048
aF-0.1827156975463512
aF-0.849066245251109
aF-0.6502605468328626
asg9
(lp1091
F-0.0007731151596634955
aF0.6887585562859526
aF0.6484077894354311
aF0.051692822411937615
aF0.5530069618517868
aF0.468082393277521
aF0.458857726835762
aF0.9542887121342072
aF0.285265149883678
aF-0.37137121874629025
aF-0.10730721663380594
aF-0.12377533412240849
aF-0.13644422847145699
aF-0.8130741545280756
asg11
g1
(g12
g3
Ntp1092
Rp1093
(dp1094
g16
(F-0.0
F0.0
F-1.0
tp1095
sbsbag1
(g2
g3
Ntp1096
Rp1097
(dp1098
g7
(lp1099
F-1.4662124470583116
aF0.9105729289851948
aF-0.5536274494259668
aF0.5668137637256798
aF0.3274723042463298
aF0.4800886965195015
aF0.7897543546690114
aF0.3318412480157799
aF-0.16790829438728383
aF0.4677528307540473
aF-0.28736674566609377
aF-0.1827156975463512
aF-0.849066245251109
aF-0.38387338237600066
asg9
(lp1100
F-0.0007731151596634955
aF-0.3567725990249113
aF0.2467699655474705
aF-0.07444352939737009
aF1.097564118641619
aF-0.047700624472105435
aF0.7555306370360004
aF0.8809507830492775
aF0.285265149883678
aF-0.32934346028250105
aF-1.1011561087787702
aF0.2787499491615734
aF-0.8884718488530894
aF-0.9666826645766657
asg11
g1
(g12
g3
Ntp1101
Rp1102
(dp1103
g16
(F-0.0
F0.0
F-1.0
tp1104
sbsbag1
(g2
g3
Ntp1105
Rp1106
(dp1107
g7
(lp1108
F-0.7156454046487307
aF0.3320242270793932
aF0.1117842457389655
aF0.5668137637256798
aF0.3001017473656018
aF1.1983726944980138
aF0.9377648046275029
aF0.24798614548600123
aF0.44524647408469076
aF-0.3148621009572768
aF-0.09128128479326739
aF-0.1842498402568017
aF0.46238257538423255
aF-0.4077545023133895
asg9
(lp1109
F-0.006568188092168228
aF0.5452739511413665
aF0.03391274955923046
aF0.7626928575542775
aF0.4882826954370619
aF0.8987362856924523
aF0.04384386276864627
aF1.4069584219604587
aF0.31944645538072775
aF-0.13922630582380074
aF-0.35825864298549753
aF-0.22662152845673073
aF-0.329220507526744
aF0.5298941136200477
asg11
g1
(g12
g3
Ntp1110
Rp1111
(dp1112
g16
(F0.0
F0.0
F-1.0
tp1113
sbsbag1
(g2
g3
Ntp1114
Rp1115
(dp1116
g7
(lp1117
F0.5664020692314491
aF-0.17297086469492856
aF0.1117842457389655
aF0.5668137637256798
aF0.03954110160992409
aF0.8309574618507294
aF0.6685778643276121
aF1.3796116764239879
aF0.4543443844636823
aF-0.25728247906252194
aF-0.28018435571835826
aF-0.18748264179465818
aF-0.32342112875491186
aF-0.12179290930225395
asg9
(lp1118
F-0.0182024787223202
aF0.780553670745263
aF0.936279915987164
aF0.17572657334827402
aF0.8016439104666152
aF0.8024432089619039
aF1.6067190289543003
aF1.7109262507114589
aF0.3275782992386204
aF-0.3246645781834973
aF1.3342022855984734
aF-0.21712500581141397
aF-0.39918885170399654
aF-0.2800081643615349
asg11
g1
(g12
g3
Ntp1119
Rp1120
(dp1121
g16
(F-0.0
F0.0
F-1.0
tp1122
sbsbag1
(g2
g3
Ntp1123
Rp1124
(dp1125
g7
(lp1126
F-1.270912244885559
aF1.5718730992789234
aF-0.6738050967237098
aF0.306537153558484
aF0.34879883324321964
aF1.4974441996169443
aF0.38938206498899064
aF0.4912515099130471
aF0.21225989215999458
aF-0.15388432770188923
aF-0.251471650819293
aF0.43519673699545847
aF-0.6387486045085033
aF-0.15999008586657995
asg9
(lp1127
F-0.0007731151596634955
aF-0.3436463234059615
aF0.10924635701569116
aF-0.9446916713131592
aF0.5620616729480988
aF0.5839703159631893
aF0.30188054434414946
aF1.1982907288933962
aF0.2895193963102086
aF-0.19944221435120957
aF0.030485694021593398
aF-0.001496256083147747
aF-0.5607342788263793
aF-0.44410500055121677
asg11
g1
(g12
g3
Ntp1128
Rp1129
(dp1130
g16
(F-0.0
F0.0
F-1.0
tp1131
sbsbag1
(g2
g3
Ntp1132
Rp1133
(dp1134
g7
(lp1135
F-0.022083888849538602
aF0.4249383759451721
aF0.11178424573896549
aF0.5668137637256798
aF-0.50257482356723
aF0.4800886965195015
aF0.4747760477954702
aF0.6235471912607584
aF0.3552877433356699
aF-0.3209723594021555
aF-0.9708149951046192
aF-0.19197014911677268
aF0.08222261334773007
aF0.18971704005270715
asg9
(lp1136
F-0.0007731151596634955
aF-0.06757810794501554
aF-1.0068391323579176
aF-0.035451299145660205
aF1.0974255727509574
aF0.2759998799083292
aF0.9155094484872432
aF2.2944230828000185
aF-0.696185526999328
aF0.24385037969685952
aF0.1600033182717243
aF0.1641815843875748
aF-0.7195359043317053
aF-0.8433016344986769
asg11
g1
(g12
g3
Ntp1137
Rp1138
(dp1139
g16
(F-0.0
F0.0
F-2.0
tp1140
sbsbag1
(g2
g3
Ntp1141
Rp1142
(dp1143
g7
(lp1144
F-0.0829683543581129
aF0.8108469728341058
aF0.1117842457389655
aF0.5668137637256798
aF0.21801419983088544
aF0.4800886965195015
aF0.5483820406931497
aF0.42494444038225354
aF0.3622278153577345
aF-0.23435738691664632
aF-0.28736674566609377
aF-0.1827156975463512
aF-0.849066245251109
aF-0.38387338237600066
asg9
(lp1145
F-0.0007731151596634955
aF0.7340273816152728
aF0.6484077894354311
aF0.05169282241193762
aF0.5530069618517868
aF0.16690666278159705
aF0.458857726835762
aF0.9542887121342073
aF0.285265149883678
aF-0.32934346028250105
aF-0.10730721663380594
aF-0.08633437236164976
aF-0.8042314133713412
aF-0.8130741545280756
asg11
g1
(g12
g3
Ntp1146
Rp1147
(dp1148
g16
(F-0.0
F0.0
F-1.0
tp1149
sbsbag1
(g2
g3
Ntp1150
Rp1151
(dp1152
g7
(lp1153
F-0.0829683543581129
aF0.8108469728341058
aF0.1117842457389655
aF0.5668137637256798
aF0.21801419983088544
aF0.4800886965195015
aF0.5483820406931497
aF0.42494444038225354
aF0.3622278153577345
aF-0.23435738691664632
aF-0.28736674566609377
aF-0.1827156975463512
aF-0.849066245251109
aF-0.38387338237600066
asg9
(lp1154
F-0.0007731151596634955
aF0.7340273816152728
aF0.6484077894354311
aF0.05169282241193762
aF0.5530069618517868
aF0.16690666278159705
aF0.458857726835762
aF0.9542887121342073
aF0.285265149883678
aF-0.32934346028250105
aF-0.10730721663380594
aF-0.08633437236164976
aF-0.8042314133713412
aF-0.8130741545280756
asg11
g1
(g12
g3
Ntp1155
Rp1156
(dp1157
g16
g1149
sbsbag1
(g2
g3
Ntp1158
Rp1159
(dp1160
g7
(lp1161
F-1.0944625681119313
aF0.4933053743417275
aF0.1117842457389655
aF0.5668137637256798
aF0.564374856796126
aF0.4800886965195015
aF0.43689803119762466
aF0.42494444038225354
aF0.2278947808756006
aF-0.4640758845931896
aF-0.28736674566609377
aF-0.1827156975463512
aF-0.849066245251109
aF-0.38387338237600066
asg9
(lp1162
F-0.0007731151596634955
aF-0.11876503070553002
aF-0.15590600456795578
aF-0.07361835401639194
aF0.5530069618517868
aF0.7523234597110053
aF0.42439414681251547
aF2.132765325853474
aF0.285265149883678
aF-0.32934346028250105
aF-0.06578904929742894
aF-0.08633437236164976
aF-0.5369588328045154
aF-0.4517380777751536
asg11
g1
(g12
g3
Ntp1163
Rp1164
(dp1165
g16
(F-0.0
F0.0
F-1.0
tp1166
sbsbag1
(g2
g3
Ntp1167
Rp1168
(dp1169
g7
(lp1170
F-0.0829683543581129
aF0.8108469728341058
aF0.1117842457389655
aF0.5668137637256798
aF0.21801419983088544
aF0.4800886965195015
aF0.5483820406931497
aF0.42494444038225354
aF0.3622278153577345
aF-0.23435738691664632
aF-0.28736674566609377
aF-0.1827156975463512
aF-0.849066245251109
aF-0.38387338237600066
asg9
(lp1171
F-0.0007731151596634955
aF0.7340273816152728
aF0.648407789435431
aF0.05169282241193762
aF0.5530069618517868
aF0.16690666278159705
aF0.458857726835762
aF0.9542887121342073
aF0.285265149883678
aF-0.32934346028250105
aF-0.10730721663380594
aF-0.08633437236164976
aF-0.8042314133713412
aF-0.8130741545280756
asg11
g1
(g12
g3
Ntp1172
Rp1173
(dp1174
g16
(F-0.0
F0.0
F-2.0
tp1175
sbsbag1
(g2
g3
Ntp1176
Rp1177
(dp1178
g7
(lp1179
F-0.0829683543581129
aF0.8108469728341058
aF0.1117842457389655
aF0.5668137637256798
aF0.21801419983088544
aF0.4800886965195015
aF0.5483820406931497
aF0.42494444038225354
aF0.3622278153577345
aF-0.23435738691664632
aF-0.28736674566609377
aF-0.1827156975463512
aF-0.849066245251109
aF-0.38387338237600066
asg9
(lp1180
F-0.0007731151596634955
aF0.7340273816152728
aF0.648407789435431
aF0.05169282241193762
aF0.5530069618517868
aF0.16690666278159705
aF0.458857726835762
aF0.9542887121342073
aF0.285265149883678
aF-0.32934346028250105
aF-0.10730721663380594
aF-0.08633437236164976
aF-0.8042314133713412
aF-0.8130741545280756
asg11
g1
(g12
g3
Ntp1181
Rp1182
(dp1183
g16
(F-0.0
F0.0
F-2.0
tp1184
sbsbag1
(g2
g3
Ntp1185
Rp1186
(dp1187
g7
(lp1188
F-0.008834883693443277
aF0.5982099878091098
aF0.1117842457389655
aF0.5668137637256798
aF0.3456299963460566
aF0.4800886965195015
aF0.5352150987001794
aF0.42494444038225354
aF0.28423520144140413
aF-0.12496104341767922
aF-0.28736674566609377
aF-0.1827156975463512
aF-0.8490662452511091
aF-0.38387338237600066
asg9
(lp1189
F-0.0007731151596634955
aF0.9920198366002719
aF0.2759604695591499
aF-0.024100125090391906
aF0.5530069618517868
aF0.3778815966692064
aF0.4152413775423823
aF0.833558181835478
aF0.285265149883678
aF-0.32934346028250105
aF-0.052879433287687086
aF-0.08633437236164976
aF-0.4338093370489992
aF-0.9263251178273418
asg11
g1
(g12
g3
Ntp1190
Rp1191
(dp1192
g16
(F-0.0
F0.0
F-1.0
tp1193
sbsbag1
(g2
g3
Ntp1194
Rp1195
(dp1196
g7
(lp1197
F0.45899119376089925
aF0.16848618806610588
aF0.4247512754502105
aF0.5668137637256798
aF0.34299238700485013
aF0.4800886965195015
aF0.2745374987880194
aF-0.5160084301012834
aF-0.3529138164924497
aF-1.7206495381411795
aF0.1836654032995798
aF0.6108324466569085
aF0.2862091759356341
aF-0.30312313254887424
asg9
(lp1198
F0.007559921458432652
aF1.344911646926023
aF0.2439766545743383
aF0.1133503023985997
aF0.5406551473079175
aF-0.032913306584208435
aF1.2998240516144208
aF2.306174495078281
aF0.22720935617652432
aF-0.7263080874328163
aF0.6176395393091179
aF-0.059063648344477845
aF-0.7228044137001883
aF-0.41309537964447113
asg11
g1
(g12
g3
Ntp1199
Rp1200
(dp1201
g16
(F-0.0
F0.0
F-1.0
tp1202
sbsbag1
(g2
g3
Ntp1203
Rp1204
(dp1205
g7
(lp1206
F-0.9313758843927739
aF0.5360525511201855
aF0.5896808604339899
aF0.5668137637256798
aF0.5161160891493128
aF0.4800886965195015
aF0.07531991124664539
aF0.4249444403822536
aF0.31524278133141004
aF0.03486249520012258
aF-0.28736674566609377
aF-0.38920541493718264
aF-1.1941220876438867
aF-0.4083361665821973
asg9
(lp1207
F-0.0023750016132191303
aF-0.4047725726554574
aF0.4325407042412731
aF-0.135275834003054
aF0.6368941165242046
aF0.9521434290768109
aF0.40879185437516474
aF1.1231991190753157
aF0.5456694978619236
aF-0.397635939409546
aF-0.05818170391017373
aF-0.08633437236164976
aF-0.6183858324756681
aF-0.8517168526587582
asg11
g1
(g12
g3
Ntp1208
Rp1209
(dp1210
g16
(F-0.0
F0.0
F-2.0
tp1211
sbsbag1
(g2
g3
Ntp1212
Rp1213
(dp1214
g7
(lp1215
F-0.8550543069064225
aF0.4933053743417275
aF0.028687022525653666
aF0.4209491081650424
aF0.564374856796126
aF0.021666530766550673
aF0.4772882629967271
aF0.42494444038225354
aF-0.05647572378575455
aF-0.4832813128146661
aF0.050081839170925624
aF0.2891766813749919
aF-0.30259837556587343
aF-0.43359965169399844
asg9
(lp1216
F-0.0007731151596634955
aF-0.10665921212119561
aF-0.15590600456795578
aF-0.32300528565791836
aF0.5530069618517868
aF0.45873053371483274
aF0.23938153346897686
aF2.1224897756993437
aF1.1025655236003722
aF-0.32934346028250105
aF-0.5018226267621131
aF-0.42261739051429803
aF-0.5369588328045154
aF-0.4517380777751536
asg11
g1
(g12
g3
Ntp1217
Rp1218
(dp1219
g16
(F-0.0
F0.0
F-1.0
tp1220
sbsbag1
(g2
g3
Ntp1221
Rp1222
(dp1223
g7
(lp1224
F0.5634767609914301
aF1.1218866625908346
aF0.09622485821665104
aF0.07628194937446223
aF-0.19609349035936746
aF-0.20323361161079317
aF0.39006947013630827
aF0.42494444038225354
aF1.2528885001618215
aF0.18177742848285017
aF-0.0917652089853715
aF-0.28696081844741633
aF-0.5425862842367282
aF-0.14900638660817775
asg9
(lp1225
F-0.0007731151596634955
aF1.1894112355423987
aF1.382999450939576
aF-0.16603837125521248
aF-0.08863151589032019
aF-0.12943144171476972
aF-0.01911820365011152
aF1.831576688974879
aF0.6566639246504904
aF-0.07449980777570026
aF-0.05017869006963126
aF-0.8485228002433429
aF-1.5237066225185
aF-0.4671486371527203
asg11
g1
(g12
g3
Ntp1226
Rp1227
(dp1228
g16
(F-0.0
F0.0
F-1.0
tp1229
sbsbag1
(g2
g3
Ntp1230
Rp1231
(dp1232
g7
(lp1233
F-0.03884416519879165
aF0.855759401981214
aF0.8084420456250428
aF0.5076275526287943
aF0.0425761961389349
aF-1.3682423674992432
aF1.0284993824658002
aF0.16142567256339935
aF0.5569816615128037
aF-0.01564592271169396
aF-0.2713045256935523
aF-0.029913707500942847
aF-0.888985939480292
aF-0.43655577971288007
asg9
(lp1234
F-0.0007731151596634955
aF-0.8526011441607846
aF1.7701015470465191
aF-0.19918595440914483
aF0.3848511320409626
aF0.4242301265656197
aF-0.024130141509879716
aF4.3008269538997865
aF0.4149362086998719
aF-0.04969193925481828
aF0.0480223505666018
aF0.6104906931259098
aF-0.8946343164630859
aF-0.6095691858699659
asg11
g1
(g12
g3
Ntp1235
Rp1236
(dp1237
g16
(F-0.0
F0.0
F-1.0
tp1238
sbsbag1
(g2
g3
Ntp1239
Rp1240
(dp1241
g7
(lp1242
F-0.7018675283737773
aF0.9307158509539667
aF-0.17632800274000648
aF1.0468049316550854
aF-0.7486673235961148
aF0.5086095582245447
aF1.3027959626125942
aF1.3327966199890424
aF1.040941094517659
aF-1.4830403571914261
aF-0.8153055943821158
aF-0.14627693131008176
aF-0.3859180446971284
aF-0.2469845122071951
asg9
(lp1243
F-0.0007731151596634955
aF1.1615596311077736
aF-2.2160696689490953
aF-0.09155416847131163
aF-0.19254569941218977
aF0.11601965014100503
aF1.1126492213975785
aF-0.004166767627644452
aF0.2690095843474908
aF-0.2981549997453825
aF-0.006954516000030157
aF-0.2575835315201204
aF-1.163081406939274
aF-0.6052412926958921
asg11
g1
(g12
g3
Ntp1244
Rp1245
(dp1246
g16
(F0.0
F0.0
F-1.0
tp1247
sbsbag1
(g2
g3
Ntp1248
Rp1249
(dp1250
g7
(lp1251
F-4.235488145594171
aF0.218345110297379
aF-0.22098899172265699
aF0.5566983636071849
aF0.5895730450490755
aF1.0885833893472732
aF0.8755720648591951
aF0.41912787558198866
aF0.2801349529850863
aF-0.25519538420170595
aF-0.0822581199523422
aF-0.6039997868224491
aF-0.7653324178881834
aF-1.7709877322846572
asg9
(lp1252
F-0.0007731151596634955
aF0.9461374091939115
aF0.5799580526441268
aF-0.12582330253705637
aF-0.22771538772771474
aF0.06995246087499989
aF0.3057566398245259
aF2.8627775777728335
aF0.28356825805697294
aF-0.3696857676593175
aF-0.08904195777197173
aF-0.09702598336062716
aF-0.674719692530538
aF-0.9984252069255265
asg11
g1
(g12
g3
Ntp1253
Rp1254
(dp1255
g16
(F-0.0
F0.0
F-1.0
tp1256
sbsbag1
(g2
g3
Ntp1257
Rp1258
(dp1259
g7
(lp1260
F1.5469117317266625
aF0.9091414887546148
aF0.4360581690647225
aF0.4494840388314144
aF0.10242300367618799
aF-0.07972692409688428
aF0.10659748189213064
aF0.4244603277324464
aF0.49508556318915414
aF-0.21953600529346107
aF-0.08052363502929952
aF-0.6756454005581498
aF-0.6636206348593969
aF-0.7308896025097398
asg9
(lp1261
F-0.0007731151596634955
aF0.8787805260958206
aF-0.3103684468080689
aF0.14753474927860186
aF1.5939565075242093
aF0.08567907354935453
aF0.44814691598383133
aF-0.6225940976523436
aF0.2840390236220973
aF-0.335795252264477
aF-0.09239144360907427
aF-0.2531587249571619
aF-0.817668744271759
aF0.7197663914725672
asg11
g1
(g12
g3
Ntp1262
Rp1263
(dp1264
g16
(F-0.0
F0.0
F-1.0
tp1265
sbsbag1
(g2
g3
Ntp1266
Rp1267
(dp1268
g7
(lp1269
F-0.0829683543581129
aF0.8108469728341058
aF0.1117842457389655
aF0.5668137637256798
aF0.21801419983088544
aF0.4800886965195015
aF0.5483820406931497
aF0.42494444038225354
aF0.3622278153577345
aF-0.23435738691664632
aF-0.28736674566609377
aF-0.1827156975463512
aF-0.849066245251109
aF-0.38387338237600066
asg9
(lp1270
F-0.0007731151596634955
aF0.7340273816152728
aF0.6484077894354311
aF0.05169282241193762
aF0.5530069618517868
aF0.16690666278159705
aF0.458857726835762
aF0.9542887121342073
aF0.285265149883678
aF-0.32934346028250105
aF-0.10730721663380594
aF-0.08633437236164976
aF-0.8042314133713412
aF-0.8130741545280756
asg11
g1
(g12
g3
Ntp1271
Rp1272
(dp1273
g16
(F-0.0
F0.0
F-1.0
tp1274
sbsbag1
(g2
g3
Ntp1275
Rp1276
(dp1277
g7
(lp1278
F-0.0829683543581129
aF0.8108469728341058
aF0.1117842457389655
aF0.5668137637256798
aF0.21801419983088544
aF0.4800886965195015
aF0.5483820406931497
aF0.42494444038225354
aF0.3622278153577345
aF-0.23435738691664632
aF-0.28736674566609377
aF-0.1827156975463512
aF-0.849066245251109
aF-0.38387338237600066
asg9
(lp1279
F-0.0007731151596634955
aF0.7340273816152728
aF0.6484077894354311
aF0.05169282241193762
aF0.5530069618517868
aF0.16690666278159705
aF0.458857726835762
aF0.9542887121342073
aF0.285265149883678
aF-0.32934346028250105
aF-0.10730721663380594
aF-0.08633437236164976
aF-0.8042314133713412
aF-0.8130741545280756
asg11
g1
(g12
g3
Ntp1280
Rp1281
(dp1282
g16
g1274
sbsbag1
(g2
g3
Ntp1283
Rp1284
(dp1285
g7
(lp1286
F-1.0944625681119313
aF0.4933053743417275
aF0.1117842457389655
aF0.5668137637256798
aF0.564374856796126
aF0.4800886965195015
aF0.43689803119762466
aF0.42494444038225354
aF0.2278947808756006
aF-0.4640758845931896
aF-0.28736674566609377
aF-0.1827156975463512
aF-0.849066245251109
aF-0.38387338237600066
asg9
(lp1287
F-0.0007731151596634955
aF-0.11876503070553002
aF-0.15590600456795578
aF-0.07361835401639194
aF0.5530069618517868
aF0.7523234597110053
aF0.42439414681251547
aF2.132765325853474
aF0.285265149883678
aF-0.32934346028250105
aF-0.06578904929742894
aF-0.08633437236164976
aF-0.5369588328045154
aF-0.4517380777751536
asg11
g1
(g12
g3
Ntp1288
Rp1289
(dp1290
g16
(F-0.0
F0.0
F-1.0
tp1291
sbsbag1
(g2
g3
Ntp1292
Rp1293
(dp1294
g7
(lp1295
F-0.0829683543581129
aF0.8108469728341058
aF0.1117842457389655
aF0.5668137637256798
aF0.21801419983088544
aF0.4800886965195015
aF0.5483820406931497
aF0.42494444038225354
aF0.3622278153577345
aF-0.23435738691664632
aF-0.28736674566609377
aF-0.1827156975463512
aF-0.849066245251109
aF-0.38387338237600066
asg9
(lp1296
F-0.0007731151596634955
aF0.7340273816152728
aF0.6484077894354311
aF0.05169282241193762
aF0.5530069618517868
aF0.16690666278159705
aF0.458857726835762
aF0.9542887121342073
aF0.285265149883678
aF-0.32934346028250105
aF-0.10730721663380594
aF-0.08633437236164976
aF-0.8042314133713412
aF-0.8130741545280756
asg11
g1
(g12
g3
Ntp1297
Rp1298
(dp1299
g16
g1274
sbsbag1
(g2
g3
Ntp1300
Rp1301
(dp1302
g7
(lp1303
F-0.0829683543581129
aF0.8108469728341058
aF0.1117842457389655
aF0.5668137637256798
aF0.21801419983088544
aF0.4800886965195015
aF0.5483820406931497
aF0.42494444038225354
aF0.3622278153577345
aF-0.23435738691664632
aF-0.28736674566609377
aF-0.1827156975463512
aF-0.849066245251109
aF-0.38387338237600066
asg9
(lp1304
F-0.0007731151596634955
aF0.7340273816152728
aF0.6484077894354311
aF0.05169282241193762
aF0.5530069618517868
aF0.16690666278159705
aF0.458857726835762
aF0.9542887121342073
aF0.285265149883678
aF-0.32934346028250105
aF-0.10730721663380594
aF-0.08633437236164976
aF-0.8042314133713412
aF-0.8130741545280756
asg11
g1
(g12
g3
Ntp1305
Rp1306
(dp1307
g16
g1274
sbsbag1
(g2
g3
Ntp1308
Rp1309
(dp1310
g7
(lp1311
F-0.0796555759422186
aF0.8771849436040875
aF0.22916292718602985
aF0.7436589078648412
aF0.2714151518092847
aF0.8346617691497065
aF1.0735119831052518
aF0.6035991253464982
aF-2.5067434196895264
aF-1.0834122272266573
aF-1.4267621225383738
aF0.12101808357619434
aF-1.7935115719503674
aF0.04773714728759676
asg9
(lp1312
F-0.0007731151596634955
aF1.0653182103888812
aF0.9101176288931196
aF-0.028137045776763275
aF0.6750976221956152
aF-0.04411246220461465
aF0.47397825967748475
aF1.0551165512763103
aF0.12246504124276553
aF-0.3418211721303075
aF0.03603888952249425
aF-0.08633437236164976
aF-0.9916172262928659
aF-0.7381447738581302
asg11
g1
(g12
g3
Ntp1313
Rp1314
(dp1315
g16
(F-0.0
F0.0
F-1.0
tp1316
sbsbag1
(g2
g3
Ntp1317
Rp1318
(dp1319
g7
(lp1320
F0.565301194735065
aF0.8056475941439672
aF0.6956715173153938
aF0.6424091324534411
aF-0.0019701318683366525
aF0.6052969214888143
aF0.4540841802856285
aF0.4114998651169355
aF0.7258521032512931
aF-0.5422902351485995
aF-0.3414746169707578
aF0.03594778150475611
aF-0.7975161034213094
aF-0.38387338237600066
asg9
(lp1321
F-0.0007731151596634955
aF1.220951681406896
aF-0.5953870485543133
aF0.0771167504798784
aF1.1117939203795912
aF0.4671548171409146
aF0.39320196560902265
aF1.239584314299351
aF0.9074056209732042
aF-0.2910549312221027
aF0.11951721535992219
aF-0.08633437236164976
aF-0.8744930973643934
aF-0.5850463572866805
asg11
g1
(g12
g3
Ntp1322
Rp1323
(dp1324
g16
(F-0.0
F0.0
F-2.0
tp1325
sbsbag1
(g2
g3
Ntp1326
Rp1327
(dp1328
g7
(lp1329
F-0.2146390199859735
aF0.9028057088557316
aF0.1117842457389655
aF0.5650449795460312
aF0.44338274284394097
aF-0.40468534294516856
aF0.49692874876090565
aF0.31333577178209104
aF0.21459605770812065
aF-0.3734928170258142
aF-0.3469621158251224
aF-0.01062553186320907
aF-1.295081463759218
aF-0.38387338237600066
asg9
(lp1330
F-0.0007731151596634955
aF0.374858777790104
aF0.8696180016845675
aF0.6471405753704202
aF0.5530069618517868
aF0.3690339155076185
aF0.39035443292694383
aF1.029113515880549
aF0.285265149883678
aF-0.3322191439407304
aF-0.03510926489883946
aF-0.08633437236164976
aF-0.26570430121933164
aF-0.7258132542184239
asg11
g1
(g12
g3
Ntp1331
Rp1332
(dp1333
g16
(F-0.0
F0.0
F-1.0
tp1334
sbsbag1
(g2
g3
Ntp1335
Rp1336
(dp1337
g7
(lp1338
F0.5577660294145533
aF0.8762446400886135
aF0.7298240056839779
aF0.7230679137615008
aF0.4278612855993422
aF0.47999631044016267
aF0.16792967275684084
aF0.9572920788705351
aF0.35370386481380106
aF0.5023771783163457
aF-0.28820098151836604
aF0.010428036730403142
aF-1.5295618655471046
aF-1.6256036584535585
asg9
(lp1339
F0.013029194670305866
aF-0.29054064636123594
aF0.5406163084707373
aF0.09559646114721013
aF0.5417221817599362
aF0.7512413471921462
aF0.4962742500093419
aF0.23494014957622644
aF0.80054638677261
aF-0.40409878635037455
aF-0.07420414324628508
aF-0.8454366046307671
aF-0.3561001406042954
aF-0.7573268468709701
asg11
g1
(g12
g3
Ntp1340
Rp1341
(dp1342
g16
(F-0.0
F0.0
F-1.0
tp1343
sbsbag1
(g2
g3
Ntp1344
Rp1345
(dp1346
g7
(lp1347
F-0.004550422486129035
aF0.812728873347946
aF0.12371764424322589
aF0.04903728593524111
aF0.2818964199032503
aF0.48555811415414685
aF0.8199939187683397
aF0.554015201802945
aF0.36643208894695
aF-0.06431001669394816
aF0.03759316559854681
aF-0.2365723918348949
aF-0.9015116755386208
aF0.351329077365705
asg9
(lp1348
F-0.0007731151596634955
aF0.37640340661986466
aF0.8372490318008788
aF0.1078955042507036
aF-0.18489061070296808
aF-1.8770106403286995
aF0.38859100115475076
aF2.093105467654408
aF0.1816107330209386
aF-0.05622500051908126
aF0.08595482628029663
aF0.43117580794060084
aF-0.7919292138787943
aF-0.5350367317605178
asg11
g1
(g12
g3
Ntp1349
Rp1350
(dp1351
g16
(F-0.0
F0.0
F-1.0
tp1352
sbsbag1
(g2
g3
Ntp1353
Rp1354
(dp1355
g7
(lp1356
F-0.0771934610376527
aF1.7378684326485796
aF0.11163706458437009
aF0.589477906187971
aF1.3503416459247233
aF0.4897520905549672
aF-0.7365274463735073
aF1.729531735453002
aF0.3783560495798536
aF0.3478724961658544
aF0.027943226099368806
aF0.035554215464396216
aF-1.2402313056352314
aF-0.652343489430359
asg9
(lp1357
F-0.0007731151596634955
aF0.8368973511756181
aF0.680803277959648
aF0.07707937470257831
aF1.0397329444477448
aF0.4826677834890343
aF0.5784260896680998
aF2.510179582572191
aF0.026718933980584225
aF0.5084556603675074
aF-0.34462956172747716
aF0.26652587850671317
aF-0.7911270918617881
aF-0.7871727925891373
asg11
g1
(g12
g3
Ntp1358
Rp1359
(dp1360
g16
(F-0.0
F0.0
F-1.0
tp1361
sbsbag1
(g2
g3
Ntp1362
Rp1363
(dp1364
g7
(lp1365
F-0.0829683543581129
aF0.8108469728341058
aF0.1117842457389655
aF0.5668137637256798
aF0.21801419983088544
aF0.4800886965195015
aF0.5483820406931497
aF0.42494444038225354
aF0.3622278153577345
aF-0.23435738691664632
aF-0.28736674566609377
aF-0.1827156975463512
aF-0.849066245251109
aF-0.38387338237600066
asg9
(lp1366
F-0.0007731151596634955
aF0.7340273816152728
aF0.6484077894354311
aF0.05169282241193762
aF0.5530069618517868
aF0.16690666278159705
aF0.458857726835762
aF0.9542887121342073
aF0.285265149883678
aF-0.32934346028250105
aF-0.10730721663380594
aF-0.08633437236164976
aF-0.8042314133713412
aF-0.8130741545280756
asg11
g1
(g12
g3
Ntp1367
Rp1368
(dp1369
g16
(F-0.0
F0.0
F-1.0
tp1370
sbsbag1
(g2
g3
Ntp1371
Rp1372
(dp1373
g7
(lp1374
F-0.0829683543581129
aF0.8108469728341058
aF0.1117842457389655
aF0.5668137637256798
aF0.21801419983088544
aF0.4800886965195015
aF0.5483820406931497
aF0.42494444038225354
aF0.3622278153577345
aF-0.23435738691664632
aF-0.28736674566609377
aF-0.1827156975463512
aF-0.849066245251109
aF-0.38387338237600066
asg9
(lp1375
F-0.0007731151596634955
aF0.7340273816152728
aF0.6484077894354311
aF0.05169282241193762
aF0.5530069618517868
aF0.16690666278159705
aF0.458857726835762
aF0.9542887121342073
aF0.285265149883678
aF-0.32934346028250105
aF-0.10730721663380594
aF-0.08633437236164976
aF-0.8042314133713412
aF-0.8130741545280756
asg11
g1
(g12
g3
Ntp1376
Rp1377
(dp1378
g16
g1370
sbsbag1
(g2
g3
Ntp1379
Rp1380
(dp1381
g7
(lp1382
F-1.0944625681119313
aF0.4933053743417275
aF0.1117842457389655
aF0.5668137637256798
aF0.564374856796126
aF0.4800886965195015
aF0.43689803119762466
aF0.42494444038225354
aF0.2278947808756006
aF-0.4640758845931896
aF-0.28736674566609377
aF-0.1827156975463512
aF-0.849066245251109
aF-0.38387338237600066
asg9
(lp1383
F-0.0007731151596634955
aF-0.11876503070553002
aF-0.15590600456795578
aF-0.07361835401639194
aF0.5530069618517868
aF0.7523234597110053
aF0.42439414681251547
aF2.132765325853474
aF0.285265149883678
aF-0.32934346028250105
aF-0.06578904929742894
aF-0.08633437236164976
aF-0.5369588328045154
aF-0.4517380777751536
asg11
g1
(g12
g3
Ntp1384
Rp1385
(dp1386
g16
(F-0.0
F0.0
F-1.0
tp1387
sbsbag1
(g2
g3
Ntp1388
Rp1389
(dp1390
g7
(lp1391
F0.8107524622251687
aF0.8108469728341058
aF0.1117842457389655
aF0.5668137637256798
aF0.21801419983088544
aF0.2963196697657571
aF0.5483820406931497
aF1.316496472718017
aF0.3622278153577345
aF-0.23435738691664632
aF-0.28736674566609377
aF-0.1827156975463512
aF-1.098763697614642
aF-0.38387338237600066
asg9
(lp1392
F-0.0007731151596634955
aF0.7340273816152728
aF0.6484077894354311
aF0.05169282241193762
aF0.5530069618517868
aF0.16690666278159705
aF0.458857726835762
aF1.3481988865313832
aF0.45516083697742293
aF-0.32934346028250105
aF-0.10730721663380594
aF-0.08633437236164976
aF-0.8042314133713412
aF-0.8130741545280756
asg11
g1
(g12
g3
Ntp1393
Rp1394
(dp1395
g16
(F-0.0
F0.0
F-2.0
tp1396
sbsbag1
(g2
g3
Ntp1397
Rp1398
(dp1399
g7
(lp1400
F0.29260916361991945
aF0.051630876836341155
aF0.11178424573896552
aF0.6369277334396314
aF0.5840465725413753
aF0.4800886965195015
aF0.44744583708380997
aF-0.5836920253827105
aF-0.16486617293705152
aF-0.23983489089972798
aF-0.28736674566609377
aF-0.7411027197602942
aF-0.8490662452511091
aF0.41908594400818944
asg9
(lp1401
F-0.0007731151596634955
aF0.2518813589921375
aF-0.20721577618507717
aF-0.04672544386510713
aF0.5530069618517868
aF-0.11018640058225501
aF0.9198111090471214
aF3.1754256873189965
aF0.285265149883678
aF-0.32934346028250105
aF-0.10658645321288186
aF-0.08633437236164976
aF-0.47733398549113903
aF-0.9804807867376377
asg11
g1
(g12
g3
Ntp1402
Rp1403
(dp1404
g16
(F-0.0
F0.0
F-1.0
tp1405
sbsbag1
(g2
g3
Ntp1406
Rp1407
(dp1408
g7
(lp1409
F-0.8193317267668608
aF0.8349070656431167
aF0.11178424573896552
aF0.5668137637256798
aF0.19834248408563618
aF0.4800886965195015
aF0.5378342348069644
aF0.42494444038225354
aF0.42227862683148537
aF-0.458598380610108
aF-0.28736674566609377
aF-0.1827156975463512
aF-0.8490662452511091
aF-0.38387338237600066
asg9
(lp1410
F-0.0007731151596634955
aF0.3633809919176053
aF0.8395187750729902
aF0.024799912260652812
aF0.5530069618517868
aF1.0294165230748575
aF0.4121092284169953
aF0.5302583329958495
aF0.285265149883678
aF-0.32934346028250105
aF-0.06650981271835302
aF-0.08633437236164976
aF-0.8638562606847174
aF-0.3179101272599204
asg11
g1
(g12
g3
Ntp1411
Rp1412
(dp1413
g16
(F0.0
F0.0
F-1.0
tp1414
sbsbag1
(g2
g3
Ntp1415
Rp1416
(dp1417
g7
(lp1418
F-1.4714361119699453
aF2.007686799165408
aF0.5706213199768899
aF0.5285533011818137
aF0.020310917549159837
aF-0.03391195329586322
aF0.034896803735796345
aF0.42494444038225354
aF0.27777412872596285
aF-0.34062826985110306
aF-0.32281682633123765
aF-0.1827156975463512
aF-1.4796089613711745
aF-0.06882649952501818
asg9
(lp1419
F-0.0007731151596634955
aF0.29222594062340734
aF0.2343847853159085
aF-0.020996951474263673
aF0.5530069618517868
aF0.5432797463614195
aF0.4350535425234072
aF1.5800389553751042
aF0.285265149883678
aF-0.1889778109746295
aF-0.6943483450443242
aF0.024884966696756702
aF-1.3077099692488925
aF-0.11305368976109798
asg11
g1
(g12
g3
Ntp1420
Rp1421
(dp1422
g16
(F-0.0
F0.0
F-1.0
tp1423
sbsbag1
(g2
g3
Ntp1424
Rp1425
(dp1426
g7
(lp1427
F0.10418803116783104
aF0.6033761572972289
aF-0.46851443025665745
aF0.8167167621437124
aF0.5927134130350388
aF0.4800886965195015
aF0.5889427159450635
aF0.3001773673826464
aF0.3123484675073723
aF-0.45221963517950703
aF-0.37612677010996665
aF-0.1827156975463512
aF-0.11160327761050592
aF-0.15156335424152045
asg9
(lp1428
F-0.0007731151596634955
aF1.1990683229538017
aF0.3175305599030762
aF-0.0009285801301906413
aF0.5530069618517868
aF-0.16812078900681188
aF0.6941520276308139
aF1.032687204785477
aF0.4136974063539571
aF-0.7435988423958825
aF-0.06845737333629964
aF-0.5593015582501863
aF-0.739046408483645
aF-1.6578669218517486
asg11
g1
(g12
g3
Ntp1429
Rp1430
(dp1431
g16
(F-0.0
F0.0
F-2.0
tp1432
sbsbag1
(g2
g3
Ntp1433
Rp1434
(dp1435
g7
(lp1436
F0.13010423019208894
aF0.7144904922814097
aF0.1117842457389655
aF0.5724697152325713
aF0.1578745721878983
aF0.4286557468825511
aF-0.1700726205773176
aF0.42494444038225354
aF0.10504832261121078
aF-0.5296281751708799
aF-0.28736674566609377
aF-0.1827156975463512
aF-0.6617643713763
aF-0.3982032368216449
asg9
(lp1437
F-0.0007731151596634955
aF0.6124205634189203
aF0.6815401741108844
aF0.5565091045566639
aF0.5530069618517868
aF0.07308029173707226
aF0.35972806312271227
aF0.6728269272136904
aF-0.7361498558993005
aF0.146607912308725
aF-0.1199163080633448
aF-0.08633437236164976
aF-1.1022692767336428
aF-0.7401048987439812
asg11
g1
(g12
g3
Ntp1438
Rp1439
(dp1440
g16
(F-0.0
F0.0
F-1.0
tp1441
sbsbag1
(g2
g3
Ntp1442
Rp1443
(dp1444
g7
(lp1445
F1.1716834739630857
aF1.0523900526040864
aF-0.01661814183049104
aF-0.5982488593169076
aF0.8832102829202408
aF0.34730772825087286
aF1.0107687753240386
aF0.5450652958515854
aF0.06844562303906686
aF-0.19334115958843065
aF-0.7186467648925993
aF-0.15362559587253902
aF0.19638029064601425
aF-0.41967715361851793
asg9
(lp1446
F-0.0007731151596634955
aF-0.04592064178183103
aF1.854076047855484
aF-0.04569809066217842
aF0.4819541911758169
aF0.6876600223172182
aF0.0020502267357003223
aF0.6274368686108248
aF0.8131918945634201
aF-1.624096732501259
aF-0.1315576616475308
aF0.17154343826388335
aF-0.741873774418851
aF-0.9666051423722576
asg11
g1
(g12
g3
Ntp1447
Rp1448
(dp1449
g16
(F-0.0
F0.0
F-1.0
tp1450
sbsbag1
(g2
g3
Ntp1451
Rp1452
(dp1453
g7
(lp1454
F-0.0829683543581129
aF0.8108469728341058
aF0.1117842457389655
aF0.5668137637256798
aF0.21801419983088544
aF0.4800886965195015
aF0.5483820406931497
aF0.42494444038225354
aF0.3622278153577345
aF-0.23435738691664632
aF-0.28736674566609377
aF-0.1827156975463512
aF-0.849066245251109
aF-0.38387338237600066
asg9
(lp1455
F-0.0007731151596634955
aF0.7340273816152728
aF0.6484077894354311
aF0.05169282241193762
aF0.5530069618517868
aF0.16690666278159705
aF0.458857726835762
aF0.9542887121342073
aF0.285265149883678
aF-0.32934346028250105
aF-0.10730721663380594
aF-0.08633437236164976
aF-0.8042314133713412
aF-0.8130741545280756
asg11
g1
(g12
g3
Ntp1456
Rp1457
(dp1458
g16
(F-0.0
F0.0
F-1.0
tp1459
sbsbag1
(g2
g3
Ntp1460
Rp1461
(dp1462
g7
(lp1463
F-0.0829683543581129
aF0.8108469728341058
aF0.1117842457389655
aF0.5668137637256798
aF0.21801419983088544
aF0.4800886965195015
aF0.5483820406931497
aF0.42494444038225354
aF0.3622278153577345
aF-0.23435738691664632
aF-0.28736674566609377
aF-0.1827156975463512
aF-0.849066245251109
aF-0.38387338237600066
asg9
(lp1464
F-0.0007731151596634955
aF0.7340273816152728
aF0.6484077894354311
aF0.05169282241193762
aF0.5530069618517868
aF0.16690666278159705
aF0.458857726835762
aF0.9542887121342073
aF0.285265149883678
aF-0.32934346028250105
aF-0.10730721663380594
aF-0.08633437236164976
aF-0.8042314133713412
aF-0.8130741545280756
asg11
g1
(g12
g3
Ntp1465
Rp1466
(dp1467
g16
g1459
sbsbag1
(g2
g3
Ntp1468
Rp1469
(dp1470
g7
(lp1471
F-1.0944625681119313
aF0.4933053743417275
aF0.1117842457389655
aF0.5668137637256798
aF0.564374856796126
aF0.4800886965195015
aF0.43689803119762466
aF0.42494444038225354
aF0.2278947808756006
aF-0.4640758845931896
aF-0.28736674566609377
aF-0.1827156975463512
aF-0.849066245251109
aF-0.38387338237600066
asg9
(lp1472
F-0.0007731151596634955
aF-0.11876503070553002
aF-0.15590600456795578
aF-0.07361835401639194
aF0.5530069618517868
aF0.7523234597110053
aF0.42439414681251547
aF2.132765325853474
aF0.285265149883678
aF-0.32934346028250105
aF-0.06578904929742894
aF-0.08633437236164976
aF-0.5369588328045154
aF-0.4517380777751536
asg11
g1
(g12
g3
Ntp1473
Rp1474
(dp1475
g16
(F-0.0
F0.0
F-1.0
tp1476
sbsbag1
(g2
g3
Ntp1477
Rp1478
(dp1479
g7
(lp1480
F-0.0829683543581129
aF0.8108469728341058
aF0.1117842457389655
aF0.5668137637256798
aF0.21801419983088544
aF0.4800886965195015
aF0.5483820406931497
aF0.42494444038225354
aF0.3622278153577345
aF-0.23435738691664632
aF-0.28736674566609377
aF-0.1827156975463512
aF-0.849066245251109
aF-0.38387338237600066
asg9
(lp1481
F-0.0007731151596634955
aF0.7340273816152728
aF0.6484077894354311
aF0.05169282241193762
aF0.5530069618517868
aF0.16690666278159705
aF0.458857726835762
aF0.9542887121342073
aF0.285265149883678
aF-0.32934346028250105
aF-0.10730721663380594
aF-0.08633437236164976
aF-0.8042314133713412
aF-0.8130741545280756
asg11
g1
(g12
g3
Ntp1482
Rp1483
(dp1484
g16
g1459
sbsbag1
(g2
g3
Ntp1485
Rp1486
(dp1487
g7
(lp1488
F-0.07070208543450067
aF0.8108469728341058
aF0.1117842457389655
aF0.5668137637256798
aF0.21801419983088544
aF0.08519421496103696
aF0.6033402457023157
aF0.5378628753794198
aF0.3622278153577345
aF-0.8420953821066154
aF-0.28736674566609377
aF-0.1827156975463512
aF-0.849066245251109
aF-0.38387338237600066
asg9
(lp1489
F-0.0007731151596634955
aF0.810688264624164
aF0.5571411662079495
aF-0.3636166747774039
aF0.5530069618517868
aF0.5519115949862508
aF0.458857726835762
aF1.2277046223764112
aF0.285265149883678
aF-0.19435704653757666
aF0.2478350785592897
aF-0.08633437236164976
aF-0.8042314133713412
aF-0.9478879287205288
asg11
g1
(g12
g3
Ntp1490
Rp1491
(dp1492
g16
(F-0.0
F0.0
F-2.0
tp1493
sbsbag1
(g2
g3
Ntp1494
Rp1495
(dp1496
g7
(lp1497
F-1.0944625681119313
aF0.4933053743417275
aF0.1117842457389655
aF0.5668137637256798
aF0.564374856796126
aF0.4800886965195015
aF0.43689803119762466
aF0.42494444038225354
aF0.2278947808756006
aF-0.4640758845931896
aF-0.28736674566609377
aF-0.1827156975463512
aF-0.849066245251109
aF-0.38387338237600066
asg9
(lp1498
F-0.0007731151596634955
aF-0.11876503070553002
aF-0.15590600456795578
aF-0.07361835401639194
aF0.5530069618517868
aF0.7523234597110053
aF0.42439414681251547
aF2.132765325853474
aF0.285265149883678
aF-0.32934346028250105
aF-0.06578904929742894
aF-0.08633437236164976
aF-0.5369588328045154
aF-0.4517380777751536
asg11
g1
(g12
g3
Ntp1499
Rp1500
(dp1501
g16
g1476
sbsbag1
(g2
g3
Ntp1502
Rp1503
(dp1504
g7
(lp1505
F-0.0829683543581129
aF0.8108469728341058
aF0.11178424573896552
aF0.5668137637256798
aF0.21801419983088544
aF0.4800886965195015
aF0.5483820406931497
aF0.42494444038225354
aF0.3622278153577345
aF-0.2343573869166463
aF-0.28736674566609377
aF-0.1827156975463512
aF-0.8490662452511091
aF-0.38387338237600066
asg9
(lp1506
F-0.0007731151596634955
aF0.7340273816152728
aF0.6484077894354311
aF0.05169282241193762
aF0.5530069618517868
aF0.16690666278159705
aF0.45885772683576204
aF0.9542887121342072
aF0.285265149883678
aF-0.32934346028250105
aF-0.10730721663380594
aF-0.08633437236164976
aF-0.8042314133713411
aF-0.8130741545280756
asg11
g1
(g12
g3
Ntp1507
Rp1508
(dp1509
g16
(F-0.0
F0.0
F-1.0
tp1510
sbsbag1
(g2
g3
Ntp1511
Rp1512
(dp1513
g7
(lp1514
F-1.0944625681119313
aF0.2289299854602786
aF0.1117842457389655
aF0.8758692404239645
aF0.07617779463736724
aF0.4800886965195015
aF1.1079804335319523
aF0.42494444038225354
aF0.2278947808756006
aF-0.3328966892040209
aF-0.28736674566609377
aF-0.1827156975463512
aF-0.849066245251109
aF-0.38387338237600066
asg9
(lp1515
F-0.0007731151596634955
aF-0.11876503070553002
aF-0.15590600456795578
aF-0.07361835401639194
aF0.5530069618517868
aF0.7523234597110053
aF0.42439414681251547
aF1.8899031305085094
aF0.285265149883678
aF-0.5667921987005149
aF-0.06578904929742894
aF-0.08633437236164976
aF-0.5369588328045154
aF0.010598239551458943
asg11
g1
(g12
g3
Ntp1516
Rp1517
(dp1518
g16
(F-0.0
F0.0
F-1.0
tp1519
sbsbag1
(g2
g3
Ntp1520
Rp1521
(dp1522
g7
(lp1523
F-0.0829683543581129
aF0.8108469728341058
aF0.1117842457389655
aF0.5668137637256798
aF0.21801419983088544
aF0.4800886965195015
aF0.5483820406931497
aF0.42494444038225354
aF0.3622278153577345
aF-0.23435738691664632
aF-0.28736674566609377
aF-0.1827156975463512
aF-0.849066245251109
aF-0.38387338237600066
asg9
(lp1524
F-0.0007731151596634955
aF0.7340273816152729
aF0.6484077894354311
aF0.05169282241193762
aF0.5530069618517868
aF0.16690666278159705
aF0.458857726835762
aF0.9542887121342074
aF0.285265149883678
aF-0.32934346028250105
aF-0.10730721663380592
aF-0.08633437236164976
aF-0.8042314133713413
aF-0.8130741545280756
asg11
g1
(g12
g3
Ntp1525
Rp1526
(dp1527
g16
(F-0.0
F0.0
F-1.0
tp1528
sbsbag1
(g2
g3
Ntp1529
Rp1530
(dp1531
g7
(lp1532
F-0.4081079769725918
aF0.8108469728341058
aF0.32495919105965043
aF0.9864478614839227
aF0.38944306987035004
aF0.40449697079340763
aF-0.7480314121988914
aF-0.5222999299848099
aF-0.21919112947781644
aF-0.27680500199114194
aF-0.18808511356296298
aF-0.07682292688986346
aF-1.3403594231564773
aF-0.22034260193816946
asg9
(lp1533
F-0.0007731151596634955
aF0.7665890538488251
aF0.6008172669545674
aF0.4993994639705186
aF0.4788076803171588
aF0.41660495923293783
aF0.48655558212738204
aF0.9542887121342074
aF0.559779063131979
aF-0.509906084556397
aF-1.6316623169340092
aF-0.10621369520343829
aF-1.3299859670104905
aF-1.8557003913886034
asg11
g1
(g12
g3
Ntp1534
Rp1535
(dp1536
g16
(F-0.0
F0.0
F-1.0
tp1537
sbsbag1
(g2
g3
Ntp1538
Rp1539
(dp1540
g7
(lp1541
F-1.0944625681119313
aF0.4933053743417275
aF0.1117842457389655
aF0.5668137637256798
aF0.564374856796126
aF0.4800886965195015
aF0.4368980311976247
aF0.42494444038225354
aF0.2278947808756006
aF-0.4640758845931896
aF-0.28736674566609377
aF-0.1827156975463512
aF-0.849066245251109
aF-0.38387338237600066
asg9
(lp1542
F-0.0007731151596634954
aF-0.11876503070553002
aF-0.15590600456795578
aF-0.07361835401639194
aF0.5530069618517868
aF0.7523234597110053
aF0.42439414681251547
aF2.132765325853474
aF0.285265149883678
aF-0.32934346028250105
aF-0.06578904929742894
aF-0.08633437236164976
aF-0.5369588328045154
aF-0.4517380777751536
asg11
g1
(g12
g3
Ntp1543
Rp1544
(dp1545
g16
(F-0.0
F0.0
F-1.0
tp1546
sbsbag1
(g2
g3
Ntp1547
Rp1548
(dp1549
g7
(lp1550
F-3.7419196720185064
aF0.6863766923172854
aF0.28323224842407047
aF0.5788991784532467
aF0.7884450151662711
aF0.7141499327133912
aF0.3917436484394384
aF0.8819695547048393
aF0.8077149264336763
aF-0.7462053445364105
aF-0.020305958838254964
aF-0.7408693079533692
aF-1.0687425234913648
aF-0.3897030072755674
asg9
(lp1551
F-0.005515599668026535
aF-0.10940340470465869
aF-0.3504557490160662
aF-0.09806454848178081
aF0.4881703556250968
aF1.3147371473494938
aF2.158995588278021
aF1.4960433247499887
aF1.2731608144707107
aF0.2152892350512443
aF0.7710185811541315
aF-0.03465755100865826
aF-1.2233440946753389
aF-0.3327888609911025
asg11
g1
(g12
g3
Ntp1552
Rp1553
(dp1554
g16
(F-0.0
F0.0
F-1.0
tp1555
sbsbag1
(g2
g3
Ntp1556
Rp1557
(dp1558
g7
(lp1559
F-0.7370883195949887
aF0.9094459751279286
aF0.32510207100723054
aF0.6115603239065711
aF2.4410146045176475
aF0.9251837280035411
aF1.5056774417201981
aF0.5279204907718841
aF1.0092956501645507
aF-0.6231879399739567
aF0.16816242931183345
aF-0.20607611585881264
aF-1.022934015592433
aF-0.4167010896059966
asg9
(lp1560
F-0.0018299356344185077
aF-0.13591705521703512
aF0.06280172207464955
aF-0.08563393501147548
aF0.6597491405417745
aF-0.2533866968954821
aF0.9642277784604917
aF1.32915372553086
aF0.11564948580813876
aF-0.11092734814956726
aF-0.24170183629831504
aF-0.06152537356410229
aF-1.5505281121129224
aF-0.9736453084306004
asg11
g1
(g12
g3
Ntp1561
Rp1562
(dp1563
g16
(F-0.0
F0.0
F-1.0
tp1564
sbsbag1
(g2
g3
Ntp1565
Rp1566
(dp1567
g7
(lp1568
F-0.0829683543581129
aF0.8108469728341058
aF0.1117842457389655
aF0.5668137637256798
aF0.21801419983088544
aF0.4800886965195015
aF0.5483820406931497
aF0.42494444038225354
aF0.3622278153577345
aF-0.23435738691664632
aF-0.28736674566609377
aF-0.1827156975463512
aF-0.849066245251109
aF-0.38387338237600066
asg9
(lp1569
F-0.0007731151596634955
aF0.7340273816152728
aF0.6484077894354311
aF0.05169282241193762
aF0.5530069618517868
aF0.16690666278159705
aF0.458857726835762
aF0.9542887121342073
aF0.285265149883678
aF-0.32934346028250105
aF-0.10730721663380594
aF-0.08633437236164976
aF-0.8042314133713412
aF-0.8130741545280756
asg11
g1
(g12
g3
Ntp1570
Rp1571
(dp1572
g16
(F-0.0
F0.0
F-1.0
tp1573
sbsbag1
(g2
g3
Ntp1574
Rp1575
(dp1576
g7
(lp1577
F-0.0829683543581129
aF0.8108469728341058
aF0.1117842457389655
aF0.5668137637256798
aF0.21801419983088544
aF0.4800886965195015
aF0.5483820406931497
aF0.42494444038225354
aF0.3622278153577345
aF-0.23435738691664632
aF-0.28736674566609377
aF-0.1827156975463512
aF-0.849066245251109
aF-0.38387338237600066
asg9
(lp1578
F-0.0007731151596634955
aF0.7340273816152728
aF0.6484077894354311
aF0.05169282241193762
aF0.5530069618517868
aF0.16690666278159705
aF0.458857726835762
aF0.9542887121342073
aF0.285265149883678
aF-0.32934346028250105
aF-0.10730721663380594
aF-0.08633437236164976
aF-0.8042314133713412
aF-0.8130741545280756
asg11
g1
(g12
g3
Ntp1579
Rp1580
(dp1581
g16
g1573
sbsbag1
(g2
g3
Ntp1582
Rp1583
(dp1584
g7
(lp1585
F-1.0944625681119313
aF0.4933053743417275
aF0.1117842457389655
aF0.5668137637256798
aF0.564374856796126
aF0.4800886965195015
aF0.43689803119762466
aF0.42494444038225354
aF0.2278947808756006
aF-0.4640758845931896
aF-0.28736674566609377
aF-0.1827156975463512
aF-0.849066245251109
aF-0.38387338237600066
asg9
(lp1586
F-0.0007731151596634955
aF-0.11876503070553002
aF-0.15590600456795578
aF-0.07361835401639194
aF0.5530069618517868
aF0.7523234597110053
aF0.42439414681251547
aF2.132765325853474
aF0.285265149883678
aF-0.32934346028250105
aF-0.06578904929742894
aF-0.08633437236164976
aF-0.5369588328045154
aF-0.4517380777751536
asg11
g1
(g12
g3
Ntp1587
Rp1588
(dp1589
g16
(F-0.0
F0.0
F-1.0
tp1590
sbsbag1
(g2
g3
Ntp1591
Rp1592
(dp1593
g7
(lp1594
F-0.0829683543581129
aF0.8108469728341058
aF0.1117842457389655
aF0.5668137637256798
aF0.21801419983088544
aF0.4800886965195015
aF0.5483820406931497
aF0.42494444038225354
aF0.3622278153577345
aF-0.23435738691664632
aF-0.28736674566609377
aF-0.1827156975463512
aF-0.849066245251109
aF-0.38387338237600066
asg9
(lp1595
F-0.0007731151596634955
aF0.7340273816152728
aF0.6484077894354311
aF0.05169282241193762
aF0.5530069618517868
aF0.16690666278159705
aF0.458857726835762
aF0.9542887121342073
aF0.285265149883678
aF-0.32934346028250105
aF-0.10730721663380594
aF-0.08633437236164976
aF-0.8042314133713412
aF-0.8130741545280756
asg11
g1
(g12
g3
Ntp1596
Rp1597
(dp1598
g16
g1573
sbsbag1
(g2
g3
Ntp1599
Rp1600
(dp1601
g7
(lp1602
F-0.5316037476246259
aF0.9853155910183857
aF0.1117842457389655
aF1.0633803610683707
aF0.35747514610638875
aF0.4800886965195015
aF0.43689803119762466
aF0.42494444038225354
aF0.2278947808756006
aF-0.925988172700499
aF-0.28736674566609377
aF-0.1827156975463512
aF-0.849066245251109
aF-0.38387338237600066
asg9
(lp1603
F-0.0007731151596634955
aF-0.11876503070553002
aF-0.15590600456795578
aF-0.4842112289580156
aF0.5530069618517868
aF0.3869588831218608
aF0.42439414681251547
aF2.132765325853474
aF-0.6343771841896032
aF-0.32934346028250105
aF-0.06578904929742894
aF1.405335299142091
aF-0.5369588328045154
aF-0.4517380777751536
asg11
g1
(g12
g3
Ntp1604
Rp1605
(dp1606
g16
(F-0.0
F0.0
F-1.0
tp1607
sbsbag1
(g2
g3
Ntp1608
Rp1609
(dp1610
g7
(lp1611
F-0.0829683543581129
aF0.8108469728341058
aF0.1117842457389655
aF0.5668137637256798
aF0.21801419983088544
aF0.4800886965195015
aF0.5483820406931497
aF0.42494444038225354
aF0.3622278153577345
aF-0.23435738691664632
aF-0.28736674566609377
aF-0.1827156975463512
aF-0.849066245251109
aF-0.38387338237600066
asg9
(lp1612
F-0.0007731151596634955
aF0.7340273816152728
aF0.6484077894354311
aF0.05169282241193762
aF0.5530069618517868
aF0.16690666278159705
aF0.458857726835762
aF0.9542887121342073
aF0.285265149883678
aF-0.32934346028250105
aF-0.10730721663380594
aF-0.08633437236164976
aF-0.8042314133713412
aF-0.8130741545280756
asg11
g1
(g12
g3
Ntp1613
Rp1614
(dp1615
g16
g1573
sbsbag1
(g2
g3
Ntp1616
Rp1617
(dp1618
g7
(lp1619
F-0.8028636164845897
aF0.6155546392882103
aF0.11178424573896552
aF0.5668137637256798
aF0.14290768193933245
aF-0.37453574356845676
aF0.39847514850152643
aF0.42494444038225354
aF0.07600337949572247
aF-0.16557952448351662
aF-0.28736674566609377
aF-2.6248959331889203
aF-0.45805854556431846
aF-0.37609129969498345
asg9
(lp1620
F-0.0007731151596634955
aF0.7555211622476633
aF-0.36818159828354635
aF-0.06578955706673932
aF0.5816706496855584
aF0.5447031680105019
aF-0.1362539258740846
aF0.6085227793453376
aF0.217280533131941
aF-0.32934346028250105
aF-0.124061676941853
aF-0.08633437236164976
aF-0.8991509081357854
aF-0.86133101088836
asg11
g1
(g12
g3
Ntp1621
Rp1622
(dp1623
g16
(F0.0
F0.0
F-1.0
tp1624
sbsbag1
(g2
g3
Ntp1625
Rp1626
(dp1627
g7
(lp1628
F-0.37456730598545457
aF-0.23376859244951317
aF0.11178424573896552
aF0.5668137637256798
aF-0.0462452974979551
aF0.3305216216879595
aF0.5868049233892478
aF0.42494444038225354
aF0.1946974455385306
aF-0.6389500784044317
aF-0.28736674566609377
aF0.48522619603137707
aF-0.7971589687099537
aF-0.3239080900934463
asg9
(lp1629
F-0.0007731151596634955
aF-0.14025881133792045
aF0.8729333492465036
aF0.04386402546228501
aF0.5591110044190084
aF0.8188558859712516
aF0.6055636762363757
aF2.4785312586423434
aF0.532768838122485
aF-0.32934346028250105
aF-0.04903458898938188
aF-0.08633437236164976
aF-0.49843642433748486
aF-0.40348122141486936
asg11
g1
(g12
g3
Ntp1630
Rp1631
(dp1632
g16
(F-0.0
F0.0
F-1.0
tp1633
sbsbag1
(g2
g3
Ntp1634
Rp1635
(dp1636
g7
(lp1637
F0.8382047953677302
aF0.36624274094965364
aF0.465871100081793
aF0.6373883016787476
aF0.41835990334645956
aF0.38811881603957277
aF0.17378733484226772
aF0.49033472979085463
aF0.37193369184286384
aF-0.0723277167314138
aF0.17869846699127379
aF-0.7662555214943099
aF-0.7623552018392248
aF-0.27683579788543256
asg9
(lp1638
F-0.0007731151596634955
aF0.5884961651458498
aF0.645238638141787
aF-0.22430728314499765
aF0.5530069618517868
aF0.16690666278159705
aF-0.3328770996355226
aF0.8482602642925491
aF-0.8047659646178439
aF-1.2332677671670573
aF-0.23579983903858406
aF-0.7187514983825953
aF-0.644203461293218
aF-0.8871727377524017
asg11
g1
(g12
g3
Ntp1639
Rp1640
(dp1641
g16
(F-0.0
F0.0
F-1.0
tp1642
sbsbag1
(g2
g3
Ntp1643
Rp1644
(dp1645
g7
(lp1646
F1.670021031698262
aF-0.00295792708923176
aF0.1627167988747369
aF0.3357745231650491
aF1.7776548265088454
aF0.49910071629268105
aF0.13031485984798996
aF0.22655047055504093
aF0.2946310626225436
aF-0.8730260265331955
aF0.14873397371107847
aF-0.5041326250297954
aF-0.8972549982998836
aF-0.524307629452326
asg9
(lp1647
F-0.0007731151596634955
aF0.2738725019929574
aF0.6714287652953501
aF-0.18199930711319423
aF1.042914589652522
aF-0.9678234635336967
aF0.5399297775265697
aF0.04261939665223613
aF0.5048492190113254
aF-0.5815627725176304
aF-0.1365651201318363
aF1.0331502610555399
aF-0.37102984873433065
aF-0.9349707778348726
asg11
g1
(g12
g3
Ntp1648
Rp1649
(dp1650
g16
(F-0.0
F0.0
F-1.0
tp1651
sbsbag1
(g2
g3
Ntp1652
Rp1653
(dp1654
g7
(lp1655
F-1.5782959914561874
aF0.8746133851062301
aF-0.006215727944137667
aF0.5678424226245882
aF0.3479138428542107
aF0.3058811741434435
aF0.6093712386330733
aF0.12446120683981204
aF0.36306766762642684
aF-0.3350080764835255
aF0.07877909956473565
aF-0.2954934967703702
aF-1.4036318316294074
aF0.14065776917798978
asg9
(lp1656
F-0.0007731151596634955
aF-0.4044843051331667
aF-0.5239662569378498
aF0.05947534448159243
aF0.48720347727505897
aF0.28619815695413414
aF0.3899870535454014
aF2.156183392822416
aF0.33083157410501146
aF-0.3319328143686632
aF-0.15061881176607345
aF-0.08724648597305625
aF-0.707373512401104
aF-1.6931045068478663
asg11
g1
(g12
g3
Ntp1657
Rp1658
(dp1659
g16
(F-0.0
F0.0
F-2.0
tp1660
sbsbag1
(g2
g3
Ntp1661
Rp1662
(dp1663
g7
(lp1664
F-0.19876016700799953
aF0.31493286003813803
aF0.5520498172202627
aF0.5714244805837876
aF-0.11085819949759818
aF0.5341480455536574
aF0.6323407869511446
aF0.4351423015194065
aF0.29465876953719206
aF0.23514622040517216
aF0.07130310124177404
aF0.5845670828869998
aF-0.9184664274286767
aF0.07460732560959768
asg9
(lp1665
F-0.0007731151596634955
aF0.9870983470385937
aF0.3483457862060576
aF0.053486809203171934
aF1.2632684484769061
aF-0.2674644683495582
aF0.6771388022064484
aF1.1374636981713302
aF0.5555078991778482
aF-0.24746941930948788
aF-0.11323858532870609
aF-0.25271462536274253
aF-0.5525209920610981
aF-0.2143750282362985
asg11
g1
(g12
g3
Ntp1666
Rp1667
(dp1668
g16
(F-0.0
F0.0
F-1.0
tp1669
sbsbag1
(g2
g3
Ntp1670
Rp1671
(dp1672
g7
(lp1673
F-0.43878458651818625
aF0.2446291174419527
aF0.27467048805281324
aF0.5512899525700972
aF-0.058016182236958314
aF0.22584262275577283
aF0.11533251005349815
aF-0.05957381615795346
aF-0.1761809873109913
aF0.15228575175317416
aF0.21355836051985838
aF-0.32621147728703187
aF-0.6443756949131424
aF-0.3671195443592915
asg9
(lp1674
F-0.0007927833095814035
aF-0.06963759186464678
aF1.5038832326384353
aF-5.265283402630464
aF0.5924165885004745
aF-0.9182592397628254
aF0.08554830114109041
aF0.28705626614896557
aF0.5244751583666625
aF-0.21941023423330244
aF0.12240009209103286
aF-0.07327944906118344
aF-0.607723351215387
aF-0.9643991457727654
asg11
g1
(g12
g3
Ntp1675
Rp1676
(dp1677
g16
(F-0.0
F0.0
F-2.0
tp1678
sbsbag1
(g2
g3
Ntp1679
Rp1680
(dp1681
g7
(lp1682
F-0.0829683543581129
aF0.8108469728341058
aF0.1117842457389655
aF0.5668137637256798
aF0.21801419983088544
aF0.4800886965195015
aF0.5483820406931497
aF0.42494444038225354
aF0.3622278153577345
aF-0.23435738691664632
aF-0.28736674566609377
aF-0.1827156975463512
aF-0.849066245251109
aF-0.38387338237600066
asg9
(lp1683
F-0.0007731151596634955
aF0.7340273816152728
aF0.6484077894354311
aF0.05169282241193762
aF0.5530069618517868
aF0.16690666278159705
aF0.458857726835762
aF0.9542887121342073
aF0.285265149883678
aF-0.32934346028250105
aF-0.10730721663380594
aF-0.08633437236164976
aF-0.8042314133713412
aF-0.8130741545280756
asg11
g1
(g12
g3
Ntp1684
Rp1685
(dp1686
g16
(F-0.0
F0.0
F-1.0
tp1687
sbsbag1
(g2
g3
Ntp1688
Rp1689
(dp1690
g7
(lp1691
F-0.0829683543581129
aF0.8108469728341058
aF0.1117842457389655
aF0.5668137637256798
aF0.21801419983088544
aF0.4800886965195015
aF0.5483820406931497
aF0.42494444038225354
aF0.3622278153577345
aF-0.23435738691664632
aF-0.28736674566609377
aF-0.1827156975463512
aF-0.849066245251109
aF-0.38387338237600066
asg9
(lp1692
F-0.0007731151596634955
aF0.7340273816152728
aF0.6484077894354311
aF0.05169282241193762
aF0.5530069618517868
aF0.16690666278159705
aF0.458857726835762
aF0.9542887121342073
aF0.285265149883678
aF-0.32934346028250105
aF-0.10730721663380594
aF-0.08633437236164976
aF-0.8042314133713412
aF-0.8130741545280756
asg11
g1
(g12
g3
Ntp1693
Rp1694
(dp1695
g16
g1687
sbsbag1
(g2
g3
Ntp1696
Rp1697
(dp1698
g7
(lp1699
F-1.0944625681119313
aF0.4933053743417275
aF0.1117842457389655
aF0.5668137637256798
aF0.564374856796126
aF0.4800886965195015
aF0.43689803119762466
aF0.42494444038225354
aF0.2278947808756006
aF-0.4640758845931896
aF-0.28736674566609377
aF-0.1827156975463512
aF-0.849066245251109
aF-0.38387338237600066
asg9
(lp1700
F-0.0007731151596634955
aF-0.11876503070553002
aF-0.15590600456795578
aF-0.07361835401639194
aF0.5530069618517868
aF0.7523234597110053
aF0.42439414681251547
aF2.132765325853474
aF0.285265149883678
aF-0.32934346028250105
aF-0.06578904929742894
aF-0.08633437236164976
aF-0.5369588328045154
aF-0.4517380777751536
asg11
g1
(g12
g3
Ntp1701
Rp1702
(dp1703
g16
(F-0.0
F0.0
F-1.0
tp1704
sbsbag1
(g2
g3
Ntp1705
Rp1706
(dp1707
g7
(lp1708
F-0.0829683543581129
aF0.8108469728341058
aF0.11178424573896549
aF0.5668137637256798
aF0.21801419983088546
aF-0.03338967906030105
aF0.5483820406931497
aF0.42494444038225354
aF0.14630806353899037
aF-1.0206551320018367
aF-0.28736674566609377
aF-0.1827156975463512
aF-0.6593553646420092
aF-0.38387338237600066
asg9
(lp1709
F-0.0007731151596634955
aF2.229518901682728
aF0.6484077894354311
aF0.05169282241193762
aF0.5530069618517868
aF0.10896066311337389
aF0.5182833932952932
aF0.9542887121342073
aF-0.29068558439844516
aF-1.4331001018471636
aF-0.10730721663380594
aF-0.08633437236164976
aF-0.8335084748379068
aF-0.8130741545280756
asg11
g1
(g12
g3
Ntp1710
Rp1711
(dp1712
g16
(F-0.0
F0.0
F-1.0
tp1713
sbsbag1
(g2
g3
Ntp1714
Rp1715
(dp1716
g7
(lp1717
F-0.0829683543581129
aF0.8108469728341058
aF0.11178424573896549
aF0.5668137637256798
aF0.21801419983088546
aF0.48008869651950153
aF0.5483820406931497
aF0.42494444038225354
aF0.3622278153577345
aF-0.23435738691664632
aF-0.28736674566609377
aF-0.1827156975463512
aF-0.8490662452511089
aF-0.38387338237600066
asg9
(lp1718
F-0.0007731151596634955
aF0.7340273816152727
aF0.6484077894354311
aF0.05169282241193762
aF0.5530069618517868
aF0.16690666278159705
aF0.458857726835762
aF0.9542887121342073
aF0.285265149883678
aF-0.32934346028250105
aF-0.10730721663380594
aF-0.08633437236164976
aF-0.8042314133713412
aF-0.8130741545280756
asg11
g1
(g12
g3
Ntp1719
Rp1720
(dp1721
g16
(F-0.0
F0.0
F-2.0
tp1722
sbsbag1
(g2
g3
Ntp1723
Rp1724
(dp1725
g7
(lp1726
F-1.5664486350366076
aF0.5907959852696418
aF0.1117842457389655
aF0.5668137637256798
aF0.537925407979834
aF0.4800886965195015
aF0.4016297126906875
aF0.42494444038225354
aF0.19961074467146833
aF-0.47935396479595854
aF-0.28736674566609377
aF-0.1827156975463512
aF-0.849066245251109
aF-0.38387338237600066
asg9
(lp1727
F-0.0007731151596634955
aF-0.2231148930927928
aF0.38999960076615886
aF-0.02809096760268604
aF0.5530069618517868
aF0.5765403142669587
aF0.47194323179167663
aF0.7519045414725432
aF0.285265149883678
aF-0.32934346028250105
aF-0.06269470434742243
aF-0.08633437236164976
aF-0.7234274310037696
aF-0.34870776478641274
asg11
g1
(g12
g3
Ntp1728
Rp1729
(dp1730
g16
(F-0.0
F0.0
F-1.0
tp1731
sbsbag1
(g2
g3
Ntp1732
Rp1733
(dp1734
g7
(lp1735
F-0.0829683543581129
aF0.8108469728341058
aF0.1117842457389655
aF0.5668137637256798
aF0.21801419983088544
aF0.4800886965195015
aF0.5483820406931497
aF0.42494444038225354
aF0.3622278153577345
aF-0.23435738691664632
aF-0.28736674566609377
aF-0.1827156975463512
aF-0.849066245251109
aF-0.38387338237600066
asg9
(lp1736
F-0.0007731151596634955
aF0.7340273816152728
aF0.6484077894354311
aF0.05169282241193762
aF0.5530069618517868
aF0.16690666278159705
aF0.458857726835762
aF0.9542887121342073
aF0.285265149883678
aF-0.32934346028250105
aF-0.10730721663380594
aF-0.08633437236164976
aF-0.8042314133713412
aF-0.8130741545280756
asg11
g1
(g12
g3
Ntp1737
Rp1738
(dp1739
g16
g1687
sbsbag1
(g2
g3
Ntp1740
Rp1741
(dp1742
g7
(lp1743
F-1.0944625681119313
aF0.4933053743417275
aF0.1117842457389655
aF0.5668137637256798
aF0.564374856796126
aF0.4800886965195015
aF0.43689803119762466
aF0.42494444038225354
aF0.2278947808756006
aF-0.4640758845931896
aF-0.28736674566609377
aF-0.1827156975463512
aF-0.849066245251109
aF-0.38387338237600066
asg9
(lp1744
F-0.0007731151596634955
aF-0.11876503070553002
aF-0.15590600456795578
aF-0.07361835401639194
aF0.5530069618517868
aF0.7523234597110053
aF0.42439414681251547
aF2.132765325853474
aF0.285265149883678
aF-0.32934346028250105
aF-0.06578904929742894
aF-0.08633437236164976
aF-0.5369588328045154
aF-0.4517380777751536
asg11
g1
(g12
g3
Ntp1745
Rp1746
(dp1747
g16
g1704
sbsbag1
(g2
g3
Ntp1748
Rp1749
(dp1750
g7
(lp1751
F-0.0829683543581129
aF0.8108469728341059
aF0.11178424573896549
aF0.5668137637256798
aF-0.47618305899093805
aF0.4800886965195015
aF0.5483820406931497
aF0.42494444038225354
aF0.3622278153577345
aF-0.23435738691664632
aF0.510023472258959
aF-0.1827156975463512
aF-0.6402883830885517
aF-0.38387338237600066
asg9
(lp1752
F-0.0007731151596634956
aF0.7340273816152728
aF0.6484077894354311
aF0.1167483021225027
aF0.5530069618517868
aF0.16690666278159705
aF1.2088527140602237
aF0.7839653643857316
aF0.285265149883678
aF-0.32934346028250105
aF-0.10730721663380594
aF-0.4734307751938644
aF-0.8042314133713412
aF-1.400105657433226
asg11
g1
(g12
g3
Ntp1753
Rp1754
(dp1755
g16
(F-0.0
F0.0
F-1.0
tp1756
sbsbag1
(g2
g3
Ntp1757
Rp1758
(dp1759
g7
(lp1760
F-1.1135522202983634
aF0.8474010642738634
aF0.08713927698742274
aF1.5514349254143363
aF0.35567656130977904
aF0.7800328355346111
aF0.05835005368341234
aF1.3109364926870348
aF0.6690824926626674
aF0.07583335799824886
aF-0.28736674566609377
aF-0.5005620740537191
aF-1.8250915469588138
aF-0.729695412275827
asg9
(lp1761
F-0.0007731151596634955
aF-0.9942535269494893
aF1.04934675122088
aF-0.5284175470298855
aF0.2793949757544204
aF0.17095464473306743
aF0.3053101544975349
aF1.1875492862130952
aF0.8087531300096433
aF0.26926504477476043
aF-0.060714778734790295
aF-1.1739397962396552
aF-1.3381434829775418
aF-1.622694161425929
asg11
g1
(g12
g3
Ntp1762
Rp1763
(dp1764
g16
(F-0.0
F0.0
F-1.0
tp1765
sbsbag1
(g2
g3
Ntp1766
Rp1767
(dp1768
g7
(lp1769
F-1.2628116110494085
aF0.549158262094614
aF-0.04865214830017164
aF0.6014135080105236
aF0.7791057034073136
aF0.2398788918605085
aF0.44517921220566414
aF1.0043728049323597
aF1.0169599643585086
aF-0.475508010817514
aF-0.3252397374075059
aF-1.7932436327445012
aF-0.2749084790552276
aF-0.3820930358783879
asg9
(lp1770
F-0.0007731151596634955
aF0.7685818007509299
aF-0.040689938852161864
aF-0.05725175293421864
aF0.5530069618517868
aF0.6558627258531362
aF0.16460306106272968
aF2.003134131186836
aF0.25130636712429466
aF-2.174352186584753
aF0.4233336750460871
aF-0.13320899973970088
aF-0.5467672330402061
aF-0.746981343089762
asg11
g1
(g12
g3
Ntp1771
Rp1772
(dp1773
g16
(F-0.0
F0.0
F-1.0
tp1774
sbsbag1
(g2
g3
Ntp1775
Rp1776
(dp1777
g7
(lp1778
F-0.8801268814520862
aF0.28660204008817536
aF1.1203041107818248
aF0.5631460304465412
aF1.6318901242757882
aF0.9238260976015892
aF1.4477349162301085
aF0.8507805294854849
aF0.6593119937348031
aF-0.5843831043870253
aF-0.8387075453245958
aF1.2013856851000542
aF-0.505766816130644
aF-0.3926306407059506
asg9
(lp1779
F-0.0007731151596634955
aF0.6737364943735388
aF0.26225835135400777
aF-0.04937923832065288
aF0.5530069618517868
aF0.4751874643829036
aF1.6311316089407413
aF1.6629263090805297
aF0.41160742657412047
aF0.10181608448571539
aF-0.5912183637320902
aF0.689858675253177
aF-0.995965114510484
aF-0.3783908315881664
asg11
g1
(g12
g3
Ntp1780
Rp1781
(dp1782
g16
(F-0.0
F0.0
F-2.0
tp1783
sbsbag1
(g2
g3
Ntp1784
Rp1785
(dp1786
g7
(lp1787
F-0.09317170942449807
aF0.8140003097081453
aF0.287933742019142
aF0.6911982873816155
aF0.5585872587239856
aF-0.6895245683032756
aF-0.07591373763119758
aF-0.24117541595608383
aF1.6526274661989773
aF-0.07459481585708938
aF-0.37811399029989823
aF0.7668658774091864
aF-0.28250576306420516
aF-0.36331626051799737
asg9
(lp1788
F-0.0007731151596634955
aF0.3980779794313897
aF0.22753500136990612
aF-0.00649471146469463
aF0.6204745774834926
aF0.940698502668337
aF0.3458578308866554
aF1.8631281712452665
aF-0.1685607722931372
aF-0.30226965577177867
aF-0.01270156245383805
aF-0.21191155042782772
aF-0.031151254493580582
aF-0.31041333707514496
asg11
g1
(g12
g3
Ntp1789
Rp1790
(dp1791
g16
(F-0.0
F0.0
F-1.0
tp1792
sbsbag1
(g2
g3
Ntp1793
Rp1794
(dp1795
g7
(lp1796
F-0.0829683543581129
aF0.8108469728341058
aF0.1117842457389655
aF0.5668137637256798
aF0.21801419983088544
aF0.4800886965195015
aF0.5483820406931497
aF0.42494444038225354
aF0.3622278153577345
aF-0.23435738691664632
aF-0.28736674566609377
aF-0.1827156975463512
aF-0.849066245251109
aF-0.38387338237600066
asg9
(lp1797
F-0.0007731151596634955
aF0.7340273816152728
aF0.6484077894354311
aF0.05169282241193762
aF0.5530069618517868
aF0.16690666278159705
aF0.458857726835762
aF0.9542887121342073
aF0.285265149883678
aF-0.32934346028250105
aF-0.10730721663380594
aF-0.08633437236164976
aF-0.8042314133713412
aF-0.8130741545280756
asg11
g1
(g12
g3
Ntp1798
Rp1799
(dp1800
g16
(F-0.0
F0.0
F-1.0
tp1801
sbsbag1
(g2
g3
Ntp1802
Rp1803
(dp1804
g7
(lp1805
F-0.0829683543581129
aF0.8108469728341058
aF0.1117842457389655
aF0.5668137637256798
aF0.21801419983088544
aF0.4800886965195015
aF0.5483820406931497
aF0.42494444038225354
aF0.3622278153577345
aF-0.23435738691664632
aF-0.28736674566609377
aF-0.1827156975463512
aF-0.849066245251109
aF-0.38387338237600066
asg9
(lp1806
F-0.0007731151596634955
aF0.7340273816152728
aF0.6484077894354311
aF0.05169282241193762
aF0.5530069618517868
aF0.16690666278159705
aF0.458857726835762
aF0.9542887121342073
aF0.285265149883678
aF-0.32934346028250105
aF-0.10730721663380594
aF-0.08633437236164976
aF-0.8042314133713412
aF-0.8130741545280756
asg11
g1
(g12
g3
Ntp1807
Rp1808
(dp1809
g16
g1801
sbsbag1
(g2
g3
Ntp1810
Rp1811
(dp1812
g7
(lp1813
F-1.0944625681119313
aF0.4933053743417275
aF0.1117842457389655
aF0.5668137637256798
aF0.564374856796126
aF0.4800886965195015
aF0.43689803119762466
aF0.42494444038225354
aF0.2278947808756006
aF-0.4640758845931896
aF-0.28736674566609377
aF-0.1827156975463512
aF-0.849066245251109
aF-0.38387338237600066
asg9
(lp1814
F-0.0007731151596634955
aF-0.11876503070553002
aF-0.15590600456795578
aF-0.07361835401639194
aF0.5530069618517868
aF0.7523234597110053
aF0.42439414681251547
aF2.132765325853474
aF0.285265149883678
aF-0.32934346028250105
aF-0.06578904929742894
aF-0.08633437236164976
aF-0.5369588328045154
aF-0.4517380777751536
asg11
g1
(g12
g3
Ntp1815
Rp1816
(dp1817
g16
(F-0.0
F0.0
F-1.0
tp1818
sbsbag1
(g2
g3
Ntp1819
Rp1820
(dp1821
g7
(lp1822
F0.3977039061649516
aF0.8108469728341057
aF0.1117842457389655
aF-0.2802752314632643
aF0.21801419983088544
aF0.4800886965195014
aF0.5483820406931497
aF0.14142567005127332
aF0.3622278153577345
aF-0.23435738691664632
aF-0.4178112966277467
aF-0.457005050420125
aF-0.03654131970891494
aF-0.38387338237600066
asg9
(lp1823
F-0.0007731151596634955
aF0.0728239719058077
aF0.43733270036547756
aF0.05169282241193762
aF-0.5430458211489129
aF0.16690666278159705
aF0.45885772683576204
aF0.9542887121342074
aF1.0264568864548527
aF-0.32934346028250105
aF-0.10696019747275747
aF-0.08633437236164976
aF-0.8042314133713412
aF-0.8130741545280757
asg11
g1
(g12
g3
Ntp1824
Rp1825
(dp1826
g16
(F-0.0
F0.0
F-1.0
tp1827
sbsbag1
(g2
g3
Ntp1828
Rp1829
(dp1830
g7
(lp1831
F-0.0829683543581129
aF0.8108469728341057
aF0.1117842457389655
aF0.5668137637256798
aF0.21801419983088544
aF0.4800886965195014
aF0.5483820406931497
aF0.42494444038225354
aF0.3622278153577345
aF-0.23435738691664632
aF-0.28736674566609377
aF-0.1827156975463512
aF-0.849066245251109
aF-0.38387338237600066
asg9
(lp1832
F-0.0007731151596634955
aF0.7340273816152728
aF0.6484077894354311
aF0.05169282241193762
aF0.5530069618517868
aF0.16690666278159705
aF0.45885772683576204
aF0.9542887121342074
aF0.285265149883678
aF-0.32934346028250105
aF-0.10730721663380594
aF-0.08633437236164976
aF-0.8042314133713412
aF-0.8130741545280757
asg11
g1
(g12
g3
Ntp1833
Rp1834
(dp1835
g16
(F-0.0
F0.0
F-1.0
tp1836
sbsbag1
(g2
g3
Ntp1837
Rp1838
(dp1839
g7
(lp1840
F-1.0944625681119313
aF0.4933053743417275
aF0.1117842457389655
aF0.5668137637256798
aF0.564374856796126
aF0.4800886965195015
aF0.43689803119762466
aF0.42494444038225354
aF0.2278947808756006
aF-0.4640758845931896
aF-0.28736674566609377
aF-0.1827156975463512
aF-0.849066245251109
aF-0.38387338237600066
asg9
(lp1841
F-0.0007731151596634955
aF-0.11876503070553002
aF-0.15590600456795578
aF-0.07361835401639194
aF0.5530069618517868
aF0.7523234597110053
aF0.42439414681251547
aF2.132765325853474
aF0.285265149883678
aF-0.32934346028250105
aF-0.06578904929742894
aF-0.08633437236164976
aF-0.5369588328045154
aF-0.4517380777751536
asg11
g1
(g12
g3
Ntp1842
Rp1843
(dp1844
g16
g1818
sbsbag1
(g2
g3
Ntp1845
Rp1846
(dp1847
g7
(lp1848
F-0.6662148011242018
aF0.6927831911845759
aF0.1117842457389655
aF0.5668137637256798
aF-0.11846210744115943
aF0.4800886965195014
aF0.6357464392894888
aF0.4249444403822536
aF0.31768740035394394
aF-0.3565321787226166
aF-0.28736674566609377
aF-0.18271569754635122
aF-0.849066245251109
aF-0.38387338237600066
asg9
(lp1849
F-0.0007731151596634955
aF0.2776424227704984
aF-0.2663925007136737
aF-8.877684500287544e-05
aF0.5530069618517868
aF0.517367303908237
aF0.4556635920807133
aF1.8643838008647005
aF0.285265149883678
aF-0.32934346028250105
aF-0.08737722100286481
aF-0.08633437236164976
aF-0.3678476461911248
aF-1.0109035570048
asg11
g1
(g12
g3
Ntp1850
Rp1851
(dp1852
g16
(F-0.0
F0.0
F-2.0
tp1853
sbsbag1
(g2
g3
Ntp1854
Rp1855
(dp1856
g7
(lp1857
F-0.0829683543581129
aF0.993519846328666
aF0.1117842457389655
aF1.3728176348410246
aF0.21801419983088544
aF0.48008869651950153
aF1.4391783567567957
aF0.42494444038225354
aF0.9560471516620239
aF-0.23435738691664632
aF-0.28736674566609377
aF-0.1827156975463512
aF0.6677363559390442
aF-0.38387338237600066
asg9
(lp1858
F-0.0007731151596634955
aF0.7340273816152728
aF-0.5376165822704809
aF0.05169282241193762
aF-0.24285361867919197
aF0.16690666278159705
aF0.4109716786854961
aF1.0446860648852831
aF0.285265149883678
aF-0.32934346028250105
aF0.6534227913928338
aF-0.08633437236164976
aF-0.8042314133713413
aF-0.7213081570964656
asg11
g1
(g12
g3
Ntp1859
Rp1860
(dp1861
g16
(F-0.0
F0.0
F-1.0
tp1862
sbsbag1
(g2
g3
Ntp1863
Rp1864
(dp1865
g7
(lp1866
F-1.2374171271277197
aF0.4318964309130754
aF0.1117842457389655
aF0.5668137637256798
aF0.7311754056624904
aF0.4800886965195015
aF0.4203500478203269
aF0.42494444038225354
aF0.30427502796102807
aF-0.34509206579388896
aF-0.28736674566609377
aF-0.1827156975463512
aF-0.8490662452511089
aF-0.38387338237600066
asg9
(lp1867
F-0.0007731151596634954
aF0.11889150448713176
aF0.022588841652031386
aF-0.11588135907427694
aF0.5530069618517868
aF0.3786371165844258
aF0.4245014701751635
aF0.8803338426641515
aF0.285265149883678
aF-0.32934346028250105
aF-0.07501982454065323
aF-0.08633437236164976
aF-0.7795572041577155
aF-0.4561113224870243
asg11
g1
(g12
g3
Ntp1868
Rp1869
(dp1870
g16
(F-0.0
F0.0
F-1.0
tp1871
sbsbag1
(g2
g3
Ntp1872
Rp1873
(dp1874
g7
(lp1875
F-0.22622443363400002
aF1.3769410398016553
aF-0.3837004562414341
aF0.45310605253730735
aF0.5789187961031604
aF0.45525292241606913
aF-0.07473221966695576
aF2.103221034537635
aF0.13794508500171276
aF-0.7204063184838885
aF-0.3724852475707633
aF-0.178352026158285
aF-0.9485696460304257
aF0.07707505263753509
asg9
(lp1876
F-0.0007731151596634955
aF0.7638029422365182
aF0.8044336776529237
aF0.07793231986831796
aF1.2291024468900615
aF0.8756282306641818
aF0.8697218692622104
aF1.107555670970822
aF0.6775196310549514
aF0.49399383943631636
aF0.14070525507761708
aF-0.09689447930116911
aF-0.7840970766759692
aF-1.0167293665123744
asg11
g1
(g12
g3
Ntp1877
Rp1878
(dp1879
g16
(F-0.0
F0.0
F-1.0
tp1880
sbsbag1
(g2
g3
Ntp1881
Rp1882
(dp1883
g7
(lp1884
F-0.08283465595611508
aF2.2876490159606506
aF-0.2968787267123621
aF0.45182910694575207
aF0.49463590197219975
aF0.4951312333414576
aF-0.9467136476864384
aF-0.07231811509135211
aF1.3303187586761078
aF-0.24963397270312157
aF0.6641471018634949
aF0.18008819748306576
aF-1.4303033057312837
aF-0.3814914091148755
asg9
(lp1885
F-0.0007731151596634955
aF0.12961976635942962
aF0.5347329303825403
aF0.2216088676058344
aF-0.266475464772518
aF0.46620290478511583
aF-0.07433734721888197
aF1.4367731386449756
aF0.30146257487918565
aF-0.44841086651067996
aF-0.9025581933188028
aF0.165899678771904
aF-0.7714294462943095
aF-1.1635983572995021
asg11
g1
(g12
g3
Ntp1886
Rp1887
(dp1888
g16
(F-0.0
F0.0
F-2.0
tp1889
sbsba.