(lp0
ccopy_reg
_reconstructor
p1
(cdeap.creator
OffenseTeam
p2
c__builtin__
object
p3
Ntp4
Rp5
(dp6
S'offense'
p7
(lp8
F-0.6053409288136434
aF0.3188127997745541
aF1.2954801005576697
aF0.39115924580088407
aF0.5973587335317387
aF0.1669410799109416
aF0.35672657900454907
aF0.676957481165485
aF0.7490127741565753
aF-0.7629355057902121
aF-0.9475797363012826
aF-0.32839864166387767
aF-0.45122311515960956
aF-0.1202489934088897
asS'defense'
p9
(lp10
F0.0011030621159652783
aF0.29141896544540674
aF0.06367713533548303
aF-0.17250838184865863
aF1.1253113871601
aF1.0020845567131706
aF0.9821854170177122
aF0.13187858087897036
aF1.3638877322457352
aF-0.09644317432676963
aF0.04322934652043755
aF-1.3048565980413993
aF-1.1807034540444468
aF-0.288857809518876
asS'fitness'
p11
g1
(cdeap.creator
AteFoodMax
p12
g3
Ntp13
Rp14
(dp15
S'wvalues'
p16
(F0.0
F11.0
F0.0
tp17
sbsbag1
(g2
g3
Ntp18
Rp19
(dp20
g7
(lp21
F-0.6053409288136434
aF0.3188127997745541
aF1.2954801005576697
aF0.39115924580088407
aF0.5973587335317387
aF0.1669410799109416
aF0.35672657900454907
aF0.676957481165485
aF0.7490127741565753
aF-0.7629355057902121
aF-0.9475797363012826
aF-0.32839864166387767
aF-0.45122311515960956
aF-0.1202489934088897
asg9
(lp22
F0.0011030621159652783
aF0.29141896544540674
aF0.06367713533548303
aF-0.17250838184865863
aF1.1253113871601
aF1.0020845567131706
aF0.9821854170177122
aF0.13187858087897036
aF1.3638877322457352
aF-0.09644317432676963
aF0.04322934652043755
aF-1.3048565980413993
aF-1.1807034540444468
aF-0.288857809518876
asg11
g1
(g12
g3
Ntp23
Rp24
(dp25
g16
g17
sbsbag1
(g2
g3
Ntp26
Rp27
(dp28
g7
(lp29
F-0.7078539305148915
aF1.230450171170062
aF0.4212846520980206
aF0.6296105673733748
aF0.11197462037169661
aF-0.13012788136378584
aF1.195265260133259
aF-0.48640002263180027
aF-0.522519244532167
aF-2.3918025763044133
aF1.2289931982277502
aF1.0453223488199974
aF-0.5465416027101571
aF-0.2540302107692433
asg9
(lp30
F-0.16432240278150284
aF0.6526259593138528
aF0.47473214978145734
aF-3.7605320877969257
aF1.420788053592101
aF1.3211791684394152
aF-0.4466953217462267
aF0.7428794258741944
aF0.6636468373385985
aF-1.345043723616151
aF-0.04282595967148334
aF-0.7633724261625772
aF0.3199843691719541
aF-0.4521849683154032
asg11
g1
(g12
g3
Ntp31
Rp32
(dp33
g16
(F0.0
F11.0
F0.0
tp34
sbsbag1
(g2
g3
Ntp35
Rp36
(dp37
g7
(lp38
F-0.7179793234427624
aF0.5826290877160899
aF1.325244441957398
aF1.0659895662323797
aF0.6852466000309574
aF0.8750925570258382
aF0.725262777573864
aF0.11397264187620369
aF0.29784798022978876
aF-0.9142421752915071
aF-0.8762810043401473
aF-0.2283341467415235
aF-0.278977807680854
aF-0.27630916473545664
asg9
(lp39
F-2.1067687190545437
aF0.8797565202608641
aF0.05691434953937149
aF1.259427269294366
aF1.2975113107674177
aF-1.5345617900581394
aF0.24332692353747784
aF0.3879003530301784
aF0.34285173334421104
aF-1.4044305557568217
aF0.3475520061061627
aF0.7967890934022106
aF-0.3854564692878467
aF-0.9614458666391275
asg11
g1
(g12
g3
Ntp40
Rp41
(dp42
g16
(F0.0
F11.0
F0.0
tp43
sbsbag1
(g2
g3
Ntp44
Rp45
(dp46
g7
(lp47
F-0.7179793234427624
aF0.5826290877160899
aF2.313016311371708
aF1.0659895662323797
aF0.6852466000309574
aF0.31154292850356047
aF0.725262777573864
aF0.5391397799912201
aF0.29784798022978876
aF-0.45430689316764
aF-0.8762810043401472
aF-0.22833414674152347
aF-0.278977807680854
aF-0.11145383617273696
asg9
(lp48
F-2.1067687190545437
aF0.4988084433402112
aF-0.4316914299492516
aF1.259427269294366
aF1.2975113107674177
aF-0.9062452916252909
aF-0.38492310463639584
aF0.3879003530301784
aF0.33895024948012614
aF-0.772025863068768
aF0.3475520061061627
aF0.7967890934022106
aF-0.3854564692878467
aF-0.9614458666391276
asg11
g1
(g12
g3
Ntp49
Rp50
(dp51
g16
(F0.0
F11.0
F0.0
tp52
sbsbag1
(g2
g3
Ntp53
Rp54
(dp55
g7
(lp56
F-0.6179637482219462
aF0.3889510265031379
aF0.47846187811320817
aF1.122882869537277
aF0.9526314109394824
aF-0.14739005925417337
aF0.3904144838354287
aF1.509669292487971
aF-0.2377115385495293
aF-0.9635417473085639
aF-0.7858839290990549
aF-0.4256593730077077
aF-0.6361430736194467
aF-0.5945432437473985
asg9
(lp57
F-0.003055880459188802
aF-1.0040071488777595
aF0.4320635260940636
aF0.9787130247530906
aF0.023178051455748416
aF-0.5842814719925572
aF0.33125711971200245
aF0.7620762681824336
aF0.08464068351941668
aF-0.37630461910981994
aF-0.8962074178660179
aF-0.23748907169084063
aF-0.2501416888845083
aF-0.5162236742720615
asg11
g1
(g12
g3
Ntp58
Rp59
(dp60
g16
(F0.0
F11.0
F0.0
tp61
sbsbag1
(g2
g3
Ntp62
Rp63
(dp64
g7
(lp65
F-0.6179637482219462
aF0.3889510265031379
aF0.47846187811320817
aF1.122882869537277
aF0.9526314109394824
aF-0.14739005925417337
aF0.3904144838354287
aF1.509669292487971
aF-0.2377115385495293
aF-0.9635417473085639
aF-0.7858839290990549
aF-0.4256593730077077
aF-0.6361430736194467
aF-0.5945432437473985
asg9
(lp66
F-0.003055880459188802
aF-1.0040071488777595
aF0.4320635260940636
aF0.9787130247530906
aF0.023178051455748416
aF-0.5842814719925572
aF0.33125711971200245
aF0.7620762681824336
aF0.08464068351941668
aF-0.37630461910981994
aF-0.8962074178660179
aF-0.23748907169084063
aF-0.2501416888845083
aF-0.5162236742720615
asg11
g1
(g12
g3
Ntp67
Rp68
(dp69
g16
g61
sbsbag1
(g2
g3
Ntp70
Rp71
(dp72
g7
(lp73
F-0.9046051348357502
aF0.36704438741178813
aF0.8307812706803073
aF0.5097898923033238
aF0.26901302299929003
aF0.12328956988040754
aF0.12056945843681345
aF-0.008876453064188106
aF0.7423116226753659
aF-0.3866591483053035
aF-1.3659352889231442
aF-0.8447157790872585
aF-0.6943979892189145
aF-0.6920444644128791
asg9
(lp74
F-0.01187906724062976
aF0.46286347514847226
aF0.039467982990905814
aF1.2547632121711443
aF0.22040052596277185
aF0.24343177143704275
aF0.7702965408814599
aF0.008919861438431938
aF1.0865604079778373
aF-1.2947750833234313
aF-0.9293640097067133
aF-1.397778411127504
aF-0.9045984181763321
aF-0.3474777979935391
asg11
g1
(g12
g3
Ntp75
Rp76
(dp77
g16
(F0.0
F11.0
F0.0
tp78
sbsbag1
(g2
g3
Ntp79
Rp80
(dp81
g7
(lp82
F-0.9046051348357501
aF0.33832845335474027
aF0.6982152542122734
aF0.5097898923033238
aF0.30339628382830164
aF-0.5238638746253492
aF0.40579753563887727
aF-0.008876453064188106
aF0.6987948287532768
aF-0.5433531417303723
aF-1.224237985013166
aF-1.2244336977201038
aF-1.6390838382032442
aF-0.638253399013124
asg9
(lp83
F-0.01187906724062976
aF1.2662191604016366
aF0.7031734608518181
aF1.0066580003652603
aF-0.6572830161767103
aF0.24343177143704275
aF0.7702965408814599
aF-0.1289180824478022
aF1.0865604079778373
aF-1.1419012752878124
aF-0.9293640097067133
aF-0.8792546288118633
aF-1.6742217223271123
aF-0.602297559988816
asg11
g1
(g12
g3
Ntp84
Rp85
(dp86
g16
(F0.0
F11.0
F0.0
tp87
sbsbag1
(g2
g3
Ntp88
Rp89
(dp90
g7
(lp91
F-0.9046051348357502
aF0.36704438741178813
aF0.8307812706803073
aF0.5097898923033238
aF0.26901302299929003
aF0.12328956988040754
aF0.12056945843681345
aF-0.008876453064188106
aF0.7423116226753659
aF-0.3866591483053035
aF-1.3659352889231442
aF-0.8447157790872585
aF-0.6943979892189145
aF-0.6920444644128791
asg9
(lp92
F-0.01187906724062976
aF0.46286347514847226
aF0.039467982990905814
aF1.2547632121711443
aF0.22040052596277185
aF0.24343177143704275
aF0.7702965408814599
aF0.008919861438431938
aF1.0865604079778373
aF-1.2947750833234313
aF-0.9293640097067133
aF-1.397778411127504
aF-0.9045984181763321
aF-0.3474777979935391
asg11
g1
(g12
g3
Ntp93
Rp94
(dp95
g16
(F0.0
F11.0
F0.0
tp96
sbsbag1
(g2
g3
Ntp97
Rp98
(dp99
g7
(lp100
F-0.9046051348357501
aF0.33832845335474027
aF0.6982152542122734
aF0.5097898923033238
aF0.30339628382830164
aF-0.5238638746253492
aF0.40579753563887727
aF-0.008876453064188106
aF0.6987948287532768
aF-0.5433531417303723
aF-1.224237985013166
aF-1.2244336977201038
aF-1.6390838382032442
aF-0.638253399013124
asg9
(lp101
F-0.01187906724062976
aF1.2662191604016366
aF0.7031734608518181
aF1.0066580003652603
aF-0.6572830161767103
aF0.24343177143704275
aF0.7702965408814599
aF-0.1289180824478022
aF1.0865604079778373
aF-1.1419012752878124
aF-0.9293640097067133
aF-0.8792546288118633
aF-1.6742217223271123
aF-0.602297559988816
asg11
g1
(g12
g3
Ntp102
Rp103
(dp104
g16
(F0.0
F11.0
F0.0
tp105
sbsbag1
(g2
g3
Ntp106
Rp107
(dp108
g7
(lp109
F-0.9046051348357502
aF0.36704438741178813
aF0.8307812706803073
aF0.5097898923033238
aF0.26901302299929003
aF0.12328956988040754
aF0.12056945843681345
aF-0.008876453064188106
aF0.7423116226753659
aF-0.3866591483053035
aF-1.3659352889231442
aF-0.8447157790872585
aF-0.6943979892189145
aF-0.6920444644128791
asg9
(lp110
F-0.01187906724062976
aF0.46286347514847226
aF0.039467982990905814
aF1.2547632121711443
aF0.22040052596277185
aF0.24343177143704275
aF0.7702965408814599
aF0.008919861438431938
aF1.0865604079778373
aF-1.2947750833234313
aF-0.9293640097067133
aF-1.397778411127504
aF-0.9045984181763321
aF-0.3474777979935391
asg11
g1
(g12
g3
Ntp111
Rp112
(dp113
g16
(F0.0
F11.0
F0.0
tp114
sbsbag1
(g2
g3
Ntp115
Rp116
(dp117
g7
(lp118
F-0.9046051348357501
aF0.33832845335474027
aF0.6982152542122734
aF0.5097898923033238
aF0.30339628382830164
aF-0.5238638746253492
aF0.40579753563887727
aF-0.008876453064188106
aF0.6987948287532768
aF-0.5433531417303723
aF-1.224237985013166
aF-1.2244336977201038
aF-1.6390838382032442
aF-0.638253399013124
asg9
(lp119
F-0.01187906724062976
aF1.2662191604016366
aF0.7031734608518181
aF1.0066580003652603
aF-0.6572830161767103
aF0.24343177143704275
aF0.7702965408814599
aF-0.1289180824478022
aF1.0865604079778373
aF-1.1419012752878124
aF-0.9293640097067133
aF-0.8792546288118633
aF-1.6742217223271123
aF-0.602297559988816
asg11
g1
(g12
g3
Ntp120
Rp121
(dp122
g16
(F0.0
F11.0
F0.0
tp123
sbsbag1
(g2
g3
Ntp124
Rp125
(dp126
g7
(lp127
F-0.9046051348357502
aF0.36704438741178813
aF0.8307812706803073
aF0.5097898923033238
aF0.26901302299929003
aF0.12328956988040754
aF0.12056945843681345
aF-0.008876453064188106
aF0.7423116226753659
aF-0.3866591483053035
aF-1.3659352889231442
aF-0.8447157790872585
aF-0.6943979892189145
aF-0.6920444644128791
asg9
(lp128
F-0.01187906724062976
aF0.46286347514847226
aF0.039467982990905814
aF1.2547632121711443
aF0.22040052596277185
aF0.24343177143704275
aF0.7702965408814599
aF0.008919861438431938
aF1.0865604079778373
aF-1.2947750833234313
aF-0.9293640097067133
aF-1.397778411127504
aF-0.9045984181763321
aF-0.3474777979935391
asg11
g1
(g12
g3
Ntp129
Rp130
(dp131
g16
(F0.0
F11.0
F0.0
tp132
sbsbag1
(g2
g3
Ntp133
Rp134
(dp135
g7
(lp136
F-0.9046051348357501
aF0.33832845335474027
aF0.6982152542122734
aF0.5097898923033238
aF0.30339628382830164
aF-0.5238638746253492
aF0.40579753563887727
aF-0.008876453064188106
aF0.6987948287532768
aF-0.5433531417303723
aF-1.224237985013166
aF-1.2244336977201038
aF-1.6390838382032442
aF-0.638253399013124
asg9
(lp137
F-0.01187906724062976
aF1.2662191604016366
aF0.7031734608518181
aF1.0066580003652603
aF-0.6572830161767103
aF0.24343177143704275
aF0.7702965408814599
aF-0.1289180824478022
aF1.0865604079778373
aF-1.1419012752878124
aF-0.9293640097067133
aF-0.8792546288118633
aF-1.6742217223271123
aF-0.602297559988816
asg11
g1
(g12
g3
Ntp138
Rp139
(dp140
g16
(F0.0
F11.0
F0.0
tp141
sbsbag1
(g2
g3
Ntp142
Rp143
(dp144
g7
(lp145
F-0.9046051348357502
aF0.36704438741178813
aF0.8307812706803073
aF0.5097898923033238
aF0.26901302299929003
aF0.12328956988040754
aF0.12056945843681345
aF-0.008876453064188106
aF0.7423116226753659
aF-0.3866591483053035
aF-1.3659352889231442
aF-0.8447157790872585
aF-0.6943979892189145
aF-0.6920444644128791
asg9
(lp146
F-0.01187906724062976
aF0.46286347514847226
aF0.039467982990905814
aF1.2547632121711443
aF0.22040052596277185
aF0.24343177143704275
aF0.7702965408814599
aF0.008919861438431938
aF1.0865604079778373
aF-1.2947750833234313
aF-0.9293640097067133
aF-1.397778411127504
aF-0.9045984181763321
aF-0.3474777979935391
asg11
g1
(g12
g3
Ntp147
Rp148
(dp149
g16
(F0.0
F11.0
F0.0
tp150
sbsbag1
(g2
g3
Ntp151
Rp152
(dp153
g7
(lp154
F-0.9046051348357501
aF0.33832845335474027
aF0.6982152542122734
aF0.5097898923033238
aF0.30339628382830164
aF-0.5238638746253492
aF0.40579753563887727
aF-0.008876453064188106
aF0.6987948287532768
aF-0.5433531417303723
aF-1.224237985013166
aF-1.2244336977201038
aF-1.6390838382032442
aF-0.638253399013124
asg9
(lp155
F-0.01187906724062976
aF1.2662191604016366
aF0.7031734608518181
aF1.0066580003652603
aF-0.6572830161767103
aF0.24343177143704275
aF0.7702965408814599
aF-0.1289180824478022
aF1.0865604079778373
aF-1.1419012752878124
aF-0.9293640097067133
aF-0.8792546288118633
aF-1.6742217223271123
aF-0.602297559988816
asg11
g1
(g12
g3
Ntp156
Rp157
(dp158
g16
(F0.0
F11.0
F0.0
tp159
sbsbag1
(g2
g3
Ntp160
Rp161
(dp162
g7
(lp163
F-0.9046051348357502
aF0.36704438741178813
aF0.8307812706803073
aF0.5097898923033238
aF0.26901302299929003
aF0.12328956988040754
aF0.12056945843681345
aF-0.008876453064188106
aF0.7423116226753659
aF-0.3866591483053035
aF-1.3659352889231442
aF-0.8447157790872585
aF-0.6943979892189145
aF-0.6920444644128791
asg9
(lp164
F-0.01187906724062976
aF0.46286347514847226
aF0.039467982990905814
aF1.2547632121711443
aF0.22040052596277185
aF0.24343177143704275
aF0.7702965408814599
aF0.008919861438431938
aF1.0865604079778373
aF-1.2947750833234313
aF-0.9293640097067133
aF-1.397778411127504
aF-0.9045984181763321
aF-0.3474777979935391
asg11
g1
(g12
g3
Ntp165
Rp166
(dp167
g16
(F0.0
F11.0
F0.0
tp168
sbsbag1
(g2
g3
Ntp169
Rp170
(dp171
g7
(lp172
F-0.9046051348357501
aF0.33832845335474027
aF0.6982152542122734
aF0.5097898923033238
aF0.30339628382830164
aF-0.5238638746253492
aF0.40579753563887727
aF-0.008876453064188106
aF0.6987948287532768
aF-0.5433531417303723
aF-1.224237985013166
aF-1.2244336977201038
aF-1.6390838382032442
aF-0.638253399013124
asg9
(lp173
F-0.01187906724062976
aF1.2662191604016366
aF0.7031734608518181
aF1.0066580003652603
aF-0.6572830161767103
aF0.24343177143704275
aF0.7702965408814599
aF-0.1289180824478022
aF1.0865604079778373
aF-1.1419012752878124
aF-0.9293640097067133
aF-0.8792546288118633
aF-1.6742217223271123
aF-0.602297559988816
asg11
g1
(g12
g3
Ntp174
Rp175
(dp176
g16
(F0.0
F11.0
F0.0
tp177
sbsbag1
(g2
g3
Ntp178
Rp179
(dp180
g7
(lp181
F-0.9046051348357502
aF0.36704438741178813
aF0.8307812706803073
aF0.5097898923033238
aF0.26901302299929003
aF0.12328956988040754
aF0.12056945843681345
aF-0.008876453064188106
aF0.7423116226753659
aF-0.3866591483053035
aF-1.3659352889231442
aF-0.8447157790872585
aF-0.6943979892189145
aF-0.6920444644128791
asg9
(lp182
F-0.01187906724062976
aF0.46286347514847226
aF0.039467982990905814
aF1.2547632121711443
aF0.22040052596277185
aF0.24343177143704275
aF0.7702965408814599
aF0.008919861438431938
aF1.0865604079778373
aF-1.2947750833234313
aF-0.9293640097067133
aF-1.397778411127504
aF-0.9045984181763321
aF-0.3474777979935391
asg11
g1
(g12
g3
Ntp183
Rp184
(dp185
g16
(F0.0
F11.0
F0.0
tp186
sbsbag1
(g2
g3
Ntp187
Rp188
(dp189
g7
(lp190
F-0.9046051348357501
aF0.33832845335474027
aF0.6982152542122734
aF0.5097898923033238
aF0.30339628382830164
aF-0.5238638746253492
aF0.40579753563887727
aF-0.008876453064188106
aF0.6987948287532768
aF-0.5433531417303723
aF-1.224237985013166
aF-1.2244336977201038
aF-1.6390838382032442
aF-0.638253399013124
asg9
(lp191
F-0.01187906724062976
aF1.2662191604016366
aF0.7031734608518181
aF1.0066580003652603
aF-0.6572830161767103
aF0.24343177143704275
aF0.7702965408814599
aF-0.1289180824478022
aF1.0865604079778373
aF-1.1419012752878124
aF-0.9293640097067133
aF-0.8792546288118633
aF-1.6742217223271123
aF-0.602297559988816
asg11
g1
(g12
g3
Ntp192
Rp193
(dp194
g16
(F0.0
F11.0
F0.0
tp195
sbsbag1
(g2
g3
Ntp196
Rp197
(dp198
g7
(lp199
F-0.9046051348357502
aF0.36704438741178813
aF0.8307812706803073
aF0.5097898923033238
aF0.26901302299929003
aF0.12328956988040754
aF0.12056945843681345
aF-0.008876453064188106
aF0.7423116226753659
aF-0.3866591483053035
aF-1.3659352889231442
aF-0.8447157790872585
aF-0.6943979892189145
aF-0.6920444644128791
asg9
(lp200
F-0.01187906724062976
aF0.46286347514847226
aF0.039467982990905814
aF1.2547632121711443
aF0.22040052596277185
aF0.24343177143704275
aF0.7702965408814599
aF0.008919861438431938
aF1.0865604079778373
aF-1.2947750833234313
aF-0.9293640097067133
aF-1.397778411127504
aF-0.9045984181763321
aF-0.3474777979935391
asg11
g1
(g12
g3
Ntp201
Rp202
(dp203
g16
(F0.0
F11.0
F0.0
tp204
sbsbag1
(g2
g3
Ntp205
Rp206
(dp207
g7
(lp208
F-0.9046051348357501
aF0.33832845335474027
aF0.6982152542122734
aF0.5097898923033238
aF0.30339628382830164
aF-0.5238638746253492
aF0.40579753563887727
aF-0.008876453064188106
aF0.6987948287532768
aF-0.5433531417303723
aF-1.224237985013166
aF-1.2244336977201038
aF-1.6390838382032442
aF-0.638253399013124
asg9
(lp209
F-0.01187906724062976
aF1.2662191604016366
aF0.7031734608518181
aF1.0066580003652603
aF-0.6572830161767103
aF0.24343177143704275
aF0.7702965408814599
aF-0.1289180824478022
aF1.0865604079778373
aF-1.1419012752878124
aF-0.9293640097067133
aF-0.8792546288118633
aF-1.6742217223271123
aF-0.602297559988816
asg11
g1
(g12
g3
Ntp210
Rp211
(dp212
g16
(F0.0
F11.0
F0.0
tp213
sbsbag1
(g2
g3
Ntp214
Rp215
(dp216
g7
(lp217
F-0.9046051348357502
aF0.36704438741178813
aF0.8307812706803073
aF0.5097898923033238
aF0.26901302299929003
aF0.12328956988040754
aF0.12056945843681345
aF-0.008876453064188106
aF0.7423116226753659
aF-0.3866591483053035
aF-1.3659352889231442
aF-0.8447157790872585
aF-0.6943979892189145
aF-0.6920444644128791
asg9
(lp218
F-0.01187906724062976
aF0.46286347514847226
aF0.039467982990905814
aF1.2547632121711443
aF0.22040052596277185
aF0.24343177143704275
aF0.7702965408814599
aF0.008919861438431938
aF1.0865604079778373
aF-1.2947750833234313
aF-0.9293640097067133
aF-1.397778411127504
aF-0.9045984181763321
aF-0.3474777979935391
asg11
g1
(g12
g3
Ntp219
Rp220
(dp221
g16
(F0.0
F11.0
F0.0
tp222
sbsbag1
(g2
g3
Ntp223
Rp224
(dp225
g7
(lp226
F-0.9046051348357501
aF0.33832845335474027
aF0.6982152542122734
aF0.5097898923033238
aF0.30339628382830164
aF-0.5238638746253492
aF0.40579753563887727
aF-0.008876453064188106
aF0.6987948287532768
aF-0.5433531417303723
aF-1.224237985013166
aF-1.2244336977201038
aF-1.6390838382032442
aF-0.638253399013124
asg9
(lp227
F-0.01187906724062976
aF1.2662191604016366
aF0.7031734608518181
aF1.0066580003652603
aF-0.6572830161767103
aF0.24343177143704275
aF0.7702965408814599
aF-0.1289180824478022
aF1.0865604079778373
aF-1.1419012752878124
aF-0.9293640097067133
aF-0.8792546288118633
aF-1.6742217223271123
aF-0.602297559988816
asg11
g1
(g12
g3
Ntp228
Rp229
(dp230
g16
(F0.0
F11.0
F0.0
tp231
sbsbag1
(g2
g3
Ntp232
Rp233
(dp234
g7
(lp235
F-0.9046051348357502
aF0.36704438741178813
aF0.8307812706803073
aF0.5097898923033238
aF0.26901302299929003
aF0.12328956988040754
aF0.12056945843681345
aF-0.008876453064188106
aF0.7423116226753659
aF-0.3866591483053035
aF-1.3659352889231442
aF-0.8447157790872585
aF-0.6943979892189145
aF-0.6920444644128791
asg9
(lp236
F-0.01187906724062976
aF0.46286347514847226
aF0.039467982990905814
aF1.2547632121711443
aF0.22040052596277185
aF0.24343177143704275
aF0.7702965408814599
aF0.008919861438431938
aF1.0865604079778373
aF-1.2947750833234313
aF-0.9293640097067133
aF-1.397778411127504
aF-0.9045984181763321
aF-0.3474777979935391
asg11
g1
(g12
g3
Ntp237
Rp238
(dp239
g16
(F0.0
F11.0
F0.0
tp240
sbsbag1
(g2
g3
Ntp241
Rp242
(dp243
g7
(lp244
F-0.9046051348357501
aF0.33832845335474027
aF0.6982152542122734
aF0.5097898923033238
aF0.30339628382830164
aF-0.5238638746253492
aF0.40579753563887727
aF-0.008876453064188106
aF0.6987948287532768
aF-0.5433531417303723
aF-1.224237985013166
aF-1.2244336977201038
aF-1.6390838382032442
aF-0.638253399013124
asg9
(lp245
F-0.01187906724062976
aF1.2662191604016366
aF0.7031734608518181
aF1.0066580003652603
aF-0.6572830161767103
aF0.24343177143704275
aF0.7702965408814599
aF-0.1289180824478022
aF1.0865604079778373
aF-1.1419012752878124
aF-0.9293640097067133
aF-0.8792546288118633
aF-1.6742217223271123
aF-0.602297559988816
asg11
g1
(g12
g3
Ntp246
Rp247
(dp248
g16
(F0.0
F11.0
F0.0
tp249
sbsba.