(lp0
ccopy_reg
_reconstructor
p1
(cdeap.creator
OffenseTeam
p2
c__builtin__
object
p3
Ntp4
Rp5
(dp6
S'offense'
p7
(lp8
F-0.6053409288136434
aF0.3188127997745541
aF1.2954801005576697
aF0.39115924580088407
aF0.5973587335317387
aF0.1669410799109416
aF0.35672657900454907
aF0.676957481165485
aF0.7490127741565753
aF-0.7629355057902121
aF-0.9475797363012826
aF-0.32839864166387767
aF-0.45122311515960956
aF-0.1202489934088897
asS'defense'
p9
(lp10
F0.0011030621159652783
aF0.29141896544540674
aF0.06367713533548303
aF-0.17250838184865863
aF1.1253113871601
aF1.0020845567131706
aF0.9821854170177122
aF0.13187858087897036
aF1.3638877322457352
aF-0.09644317432676963
aF0.04322934652043755
aF-1.3048565980413993
aF-1.1807034540444468
aF-0.288857809518876
asS'fitness'
p11
g1
(cdeap.creator
AteFoodMax
p12
g3
Ntp13
Rp14
(dp15
S'wvalues'
p16
(F0.0
F11.0
F0.0
tp17
sbsbag1
(g2
g3
Ntp18
Rp19
(dp20
g7
(lp21
F-0.6053409288136434
aF0.3188127997745541
aF1.2954801005576697
aF0.39115924580088407
aF0.5973587335317387
aF0.1669410799109416
aF0.35672657900454907
aF0.676957481165485
aF0.7490127741565753
aF-0.7629355057902121
aF-0.9475797363012826
aF-0.32839864166387767
aF-0.45122311515960956
aF-0.1202489934088897
asg9
(lp22
F0.0011030621159652783
aF0.29141896544540674
aF0.06367713533548303
aF-0.17250838184865863
aF1.1253113871601
aF1.0020845567131706
aF0.9821854170177122
aF0.13187858087897036
aF1.3638877322457352
aF-0.09644317432676963
aF0.04322934652043755
aF-1.3048565980413993
aF-1.1807034540444468
aF-0.288857809518876
asg11
g1
(g12
g3
Ntp23
Rp24
(dp25
g16
g17
sbsbag1
(g2
g3
Ntp26
Rp27
(dp28
g7
(lp29
F-0.7078539305148915
aF1.230450171170062
aF0.4212846520980206
aF0.6296105673733748
aF0.11197462037169661
aF-0.13012788136378584
aF1.195265260133259
aF-0.48640002263180027
aF-0.522519244532167
aF-2.3918025763044133
aF1.2289931982277502
aF1.0453223488199974
aF-0.5465416027101571
aF-0.2540302107692433
asg9
(lp30
F-0.16432240278150284
aF0.6526259593138528
aF0.47473214978145734
aF-3.7605320877969257
aF1.420788053592101
aF1.3211791684394152
aF-0.4466953217462267
aF0.7428794258741944
aF0.6636468373385985
aF-1.345043723616151
aF-0.04282595967148334
aF-0.7633724261625772
aF0.3199843691719541
aF-0.4521849683154032
asg11
g1
(g12
g3
Ntp31
Rp32
(dp33
g16
(F0.0
F11.0
F0.0
tp34
sbsbag1
(g2
g3
Ntp35
Rp36
(dp37
g7
(lp38
F-0.7179793234427624
aF0.5826290877160899
aF1.325244441957398
aF1.0659895662323797
aF0.6852466000309574
aF0.8750925570258382
aF0.725262777573864
aF0.11397264187620369
aF0.29784798022978876
aF-0.9142421752915071
aF-0.8762810043401473
aF-0.2283341467415235
aF-0.278977807680854
aF-0.27630916473545664
asg9
(lp39
F-2.1067687190545437
aF0.8797565202608641
aF0.05691434953937149
aF1.259427269294366
aF1.2975113107674177
aF-1.5345617900581394
aF0.24332692353747784
aF0.3879003530301784
aF0.34285173334421104
aF-1.4044305557568217
aF0.3475520061061627
aF0.7967890934022106
aF-0.3854564692878467
aF-0.9614458666391275
asg11
g1
(g12
g3
Ntp40
Rp41
(dp42
g16
(F0.0
F11.0
F0.0
tp43
sbsbag1
(g2
g3
Ntp44
Rp45
(dp46
g7
(lp47
F-0.7179793234427624
aF0.5826290877160899
aF2.313016311371708
aF1.0659895662323797
aF0.6852466000309574
aF0.31154292850356047
aF0.725262777573864
aF0.5391397799912201
aF0.29784798022978876
aF-0.45430689316764
aF-0.8762810043401472
aF-0.22833414674152347
aF-0.278977807680854
aF-0.11145383617273696
asg9
(lp48
F-2.1067687190545437
aF0.4988084433402112
aF-0.4316914299492516
aF1.259427269294366
aF1.2975113107674177
aF-0.9062452916252909
aF-0.38492310463639584
aF0.3879003530301784
aF0.33895024948012614
aF-0.772025863068768
aF0.3475520061061627
aF0.7967890934022106
aF-0.3854564692878467
aF-0.9614458666391276
asg11
g1
(g12
g3
Ntp49
Rp50
(dp51
g16
(F0.0
F11.0
F0.0
tp52
sbsbag1
(g2
g3
Ntp53
Rp54
(dp55
g7
(lp56
F-0.6179637482219462
aF0.3889510265031379
aF0.47846187811320817
aF1.122882869537277
aF0.9526314109394824
aF-0.14739005925417337
aF0.3904144838354287
aF1.509669292487971
aF-0.2377115385495293
aF-0.9635417473085639
aF-0.7858839290990549
aF-0.4256593730077077
aF-0.6361430736194467
aF-0.5945432437473985
asg9
(lp57
F-0.003055880459188802
aF-1.0040071488777595
aF0.4320635260940636
aF0.9787130247530906
aF0.023178051455748416
aF-0.5842814719925572
aF0.33125711971200245
aF0.7620762681824336
aF0.08464068351941668
aF-0.37630461910981994
aF-0.8962074178660179
aF-0.23748907169084063
aF-0.2501416888845083
aF-0.5162236742720615
asg11
g1
(g12
g3
Ntp58
Rp59
(dp60
g16
(F0.0
F11.0
F0.0
tp61
sbsbag1
(g2
g3
Ntp62
Rp63
(dp64
g7
(lp65
F-0.6179637482219462
aF0.3889510265031379
aF0.47846187811320817
aF1.122882869537277
aF0.9526314109394824
aF-0.14739005925417337
aF0.3904144838354287
aF1.509669292487971
aF-0.2377115385495293
aF-0.9635417473085639
aF-0.7858839290990549
aF-0.4256593730077077
aF-0.6361430736194467
aF-0.5945432437473985
asg9
(lp66
F-0.003055880459188802
aF-1.0040071488777595
aF0.4320635260940636
aF0.9787130247530906
aF0.023178051455748416
aF-0.5842814719925572
aF0.33125711971200245
aF0.7620762681824336
aF0.08464068351941668
aF-0.37630461910981994
aF-0.8962074178660179
aF-0.23748907169084063
aF-0.2501416888845083
aF-0.5162236742720615
asg11
g1
(g12
g3
Ntp67
Rp68
(dp69
g16
g61
sbsba.