(lp0
ccopy_reg
_reconstructor
p1
(cdeap.creator
DefenseTeam
p2
c__builtin__
object
p3
Ntp4
Rp5
(dp6
S'offense'
p7
(lp8
F-0.5905196159769133
aF0.2504012638608757
aF0.3357774832438587
aF0.8605379125744014
aF0.17785287459207744
aF0.313468095513715
aF0.6633024755098038
aF0.4163907048476103
aF0.4418922373490879
aF-0.7473198194279808
aF-0.9117890295016853
aF-0.7701277374051086
aF-0.87719537659865
aF-0.6284268075333912
asS'defense'
p9
(lp10
F-0.06114530769494941
aF0.9121924708454048
aF0.41386983489611606
aF0.18985212736873536
aF0.042470825091085795
aF0.39843025640439145
aF0.07312524171835522
aF0.5330406991664152
aF0.8554553626358401
aF-0.7041050037523315
aF-0.9777096932855929
aF-0.0979015239394857
aF-0.7653317097093955
aF-0.1770000634617297
asS'fitness'
p11
g1
(cdeap.creator
EFoodMin
p12
g3
Ntp13
Rp14
(dp15
S'wvalues'
p16
(F-0.0
F0.0
F-1.0
tp17
sbsbag1
(g2
g3
Ntp18
Rp19
(dp20
g7
(lp21
F-0.5905196159769133
aF0.2504012638608757
aF0.3357774832438587
aF0.8605379125744014
aF0.17785287459207744
aF0.313468095513715
aF0.6633024755098038
aF0.4163907048476103
aF0.4418922373490879
aF-0.7473198194279808
aF-0.9117890295016853
aF-0.7701277374051086
aF-0.87719537659865
aF-0.6284268075333912
asg9
(lp22
F-0.06114530769494941
aF0.9121924708454048
aF0.41386983489611606
aF0.18985212736873536
aF0.042470825091085795
aF0.39843025640439145
aF0.07312524171835522
aF0.5330406991664152
aF0.8554553626358401
aF-0.7041050037523315
aF-0.9777096932855929
aF-0.0979015239394857
aF-0.7653317097093955
aF-0.1770000634617297
asg11
g1
(g12
g3
Ntp23
Rp24
(dp25
g16
g17
sbsbag1
(g2
g3
Ntp26
Rp27
(dp28
g7
(lp29
F-0.5905196159769133
aF0.2504012638608757
aF0.3357774832438587
aF0.8605379125744014
aF0.17785287459207744
aF0.313468095513715
aF0.6633024755098038
aF0.4163907048476103
aF0.4418922373490879
aF-0.7473198194279808
aF-0.9117890295016853
aF-0.7701277374051086
aF-0.87719537659865
aF-0.6284268075333912
asg9
(lp30
F-0.06114530769494941
aF0.9121924708454048
aF0.41386983489611606
aF0.18985212736873536
aF0.042470825091085795
aF0.39843025640439145
aF0.07312524171835522
aF0.5330406991664152
aF0.8554553626358401
aF-0.7041050037523314
aF-0.9777096932855929
aF-0.09790152393948569
aF-0.7653317097093955
aF-0.1770000634617297
asg11
g1
(g12
g3
Ntp31
Rp32
(dp33
g16
(F-0.0
F0.0
F-1.0
tp34
sbsbag1
(g2
g3
Ntp35
Rp36
(dp37
g7
(lp38
F-0.5905196159769133
aF0.2504012638608757
aF0.3357774832438587
aF0.8605379125744014
aF0.17785287459207744
aF0.313468095513715
aF0.6633024755098038
aF0.4163907048476103
aF0.4418922373490879
aF-0.7473198194279808
aF-0.9117890295016853
aF-0.7701277374051086
aF-0.87719537659865
aF-0.6284268075333912
asg9
(lp39
F-0.06114530769494941
aF0.9121924708454048
aF0.41386983489611606
aF0.18985212736873536
aF0.042470825091085795
aF0.39843025640439145
aF0.07312524171835522
aF0.5330406991664152
aF0.8554553626358401
aF-0.7041050037523315
aF-0.9777096932855929
aF-0.0979015239394857
aF-0.7653317097093955
aF-0.1770000634617297
asg11
g1
(g12
g3
Ntp40
Rp41
(dp42
g16
g17
sbsbag1
(g2
g3
Ntp43
Rp44
(dp45
g7
(lp46
F-0.5905196159769133
aF-0.08472752738372637
aF0.05780681735781562
aF0.7420072728370801
aF-0.1798199850899156
aF0.24594442999273325
aF0.6633024755098038
aF0.4163907048476103
aF0.4418922373490879
aF-0.7473198194279808
aF-0.9117890295016853
aF-1.5393243556801257
aF-0.87719537659865
aF-0.3369105489623451
asg9
(lp47
F-0.06114530769494941
aF0.9121924708454048
aF0.41386983489611606
aF0.20467292202581083
aF0.042470825091085795
aF0.046197411037546265
aF-0.2368944925625433
aF0.5330406991664152
aF0.9580620093590099
aF-0.3420687694275054
aF-0.9680485580500255
aF-0.21138875053187173
aF-0.7421807267849991
aF-0.1770000634617297
asg11
g1
(g12
g3
Ntp48
Rp49
(dp50
g16
(F-0.0
F0.0
F-1.0
tp51
sbsbag1
(g2
g3
Ntp52
Rp53
(dp54
g7
(lp55
F-0.5905196159769133
aF0.3755729446564331
aF0.3357774832438587
aF1.7605958176714405
aF-0.5582409235905065
aF0.313468095513715
aF1.0377273911125924
aF0.4163907048476103
aF0.4418922373490879
aF-1.0048494512143318
aF-0.9117890295016853
aF0.12991418631435048
aF-0.87719537659865
aF-0.6284268075333912
asg9
(lp56
F-0.06114530769494941
aF0.9121924708454048
aF0.9112185442983799
aF0.19660014609015702
aF0.17488120234230553
aF0.23043756647064673
aF0.3519024667195919
aF1.075417930372797
aF-0.18932118175532803
aF-0.6433152478633613
aF-0.9796941184644887
aF0.593601306103203
aF-0.7591887710653769
aF-0.1770000634617297
asg11
g1
(g12
g3
Ntp57
Rp58
(dp59
g16
(F-0.0
F0.0
F-1.0
tp60
sbsbag1
(g2
g3
Ntp61
Rp62
(dp63
g7
(lp64
F-0.1394041287994946
aF-0.1748962994710827
aF1.0388404552263677
aF0.7640989496974435
aF0.15510037693276582
aF0.6665461898062822
aF0.7561471181371262
aF0.2596315760208492
aF-0.6427545196211872
aF-0.6475565804542573
aF-1.1043563705001656
aF-0.8298732216455564
aF-1.1830616944897838
aF-0.7302518205428943
asg9
(lp65
F-0.06114530769494941
aF0.825022597669683
aF0.4610649423187808
aF0.6228695900617913
aF0.13775881787682867
aF0.39851920419708686
aF-1.223198894515454
aF0.6508477774747848
aF0.8291393916633665
aF-1.1668109240172329
aF-0.9873936473197769
aF-0.07360561529902229
aF-0.011266735679630394
aF-0.8675748854156314
asg11
g1
(g12
g3
Ntp66
Rp67
(dp68
g16
(F-0.0
F0.0
F-1.0
tp69
sbsbag1
(g2
g3
Ntp70
Rp71
(dp72
g7
(lp73
F-0.9992133954338271
aF0.5610812482443767
aF0.20613590038747176
aF0.9502663167682041
aF0.8870554356457333
aF0.7647807332576539
aF0.49824246188097243
aF0.17000963638582356
aF0.9677064988749313
aF-0.6951910889493791
aF-0.28788852080275285
aF-0.8700656041564989
aF-0.2973437183717079
aF-0.36943161462909013
asg9
(lp74
F-0.0129789448869847
aF0.6319200233493109
aF0.7734853798898125
aF0.8567697049544847
aF0.7646686813456375
aF0.4963889886476438
aF0.7741775542231344
aF0.890651451770024
aF0.4851453000568028
aF-0.01267577759714933
aF-0.39560798085935733
aF-0.07791493881960354
aF-0.25474896603752806
aF-0.14320780448253223
asg11
g1
(g12
g3
Ntp75
Rp76
(dp77
g16
(F-0.0
F0.0
F-1.0
tp78
sbsbag1
(g2
g3
Ntp79
Rp80
(dp81
g7
(lp82
F-0.9992133954338271
aF0.5610812482443767
aF0.20613590038747176
aF0.9502663167682041
aF0.8870554356457333
aF0.7647807332576539
aF0.49824246188097243
aF0.17000963638582356
aF0.9677064988749313
aF-0.6951910889493791
aF-0.28788852080275285
aF-0.8700656041564989
aF-0.2973437183717079
aF-0.36943161462909013
asg9
(lp83
F-0.0129789448869847
aF0.6319200233493109
aF0.7734853798898125
aF0.8567697049544847
aF0.7646686813456375
aF0.4963889886476438
aF0.7741775542231344
aF0.890651451770024
aF0.4851453000568028
aF-0.01267577759714933
aF-0.39560798085935733
aF-0.07791493881960354
aF-0.25474896603752806
aF-0.14320780448253223
asg11
g1
(g12
g3
Ntp84
Rp85
(dp86
g16
g78
sbsbag1
(g2
g3
Ntp87
Rp88
(dp89
g7
(lp90
F-0.8917618150396642
aF1.2728758823619835
aF-0.09917653138720323
aF0.9502663167682041
aF0.8870554356457333
aF0.4740246304754897
aF0.49824246188097243
aF0.014301717470438985
aF0.9677064988749313
aF-0.6951910889493791
aF-0.28788852080275285
aF-0.0391152694044552
aF-0.2973437183717079
aF-0.36943161462909013
asg9
(lp91
F-0.0129789448869847
aF0.6319200233493109
aF0.9319057648129732
aF0.8567697049544847
aF0.7646686813456375
aF0.4963889886476438
aF0.7741775542231344
aF0.39294374690061734
aF-0.35852929799398403
aF0.016550919156350423
aF-0.39560798085935733
aF-0.37481080806271355
aF-0.1265176701115305
aF-0.14320780448253223
asg11
g1
(g12
g3
Ntp92
Rp93
(dp94
g16
(F-0.0
F0.0
F-1.0
tp95
sbsbag1
(g2
g3
Ntp96
Rp97
(dp98
g7
(lp99
F-0.9992133954338271
aF0.5610812482443767
aF0.20613590038747176
aF0.9502663167682041
aF1.1732689274351675
aF0.7647807332576539
aF0.49824246188097243
aF0.17000963638582356
aF1.1989009780960191
aF-0.6951910889493791
aF-0.28788852080275285
aF-0.8700656041564989
aF0.13170269236490145
aF-0.36943161462909013
asg9
(lp100
F-0.0129789448869847
aF0.22330410364835895
aF0.7734853798898125
aF0.8567697049544847
aF0.7646686813456375
aF-0.0939831406073256
aF0.7741775542231344
aF0.890651451770024
aF-0.008335910735065788
aF-0.01267577759714933
aF-0.3180949727586454
aF-0.07791493881960354
aF-0.25474896603752806
aF0.32452083945439913
asg11
g1
(g12
g3
Ntp101
Rp102
(dp103
g16
(F-0.0
F0.0
F-1.0
tp104
sbsbag1
(g2
g3
Ntp105
Rp106
(dp107
g7
(lp108
F-0.9992133954338271
aF0.5610812482443767
aF0.20613590038747176
aF0.9502663167682041
aF0.8870554356457333
aF0.7647807332576539
aF0.49824246188097243
aF0.17000963638582356
aF0.9677064988749313
aF-0.6951910889493791
aF-0.28788852080275285
aF-0.8700656041564989
aF-0.2973437183717079
aF-0.36943161462909013
asg9
(lp109
F-0.0129789448869847
aF0.6319200233493109
aF0.7734853798898125
aF0.8567697049544847
aF0.7646686813456375
aF0.4963889886476438
aF0.7741775542231344
aF0.890651451770024
aF0.4851453000568028
aF-0.01267577759714933
aF-0.39560798085935733
aF-0.07791493881960354
aF-0.25474896603752806
aF-0.14320780448253223
asg11
g1
(g12
g3
Ntp110
Rp111
(dp112
g16
g78
sbsbag1
(g2
g3
Ntp113
Rp114
(dp115
g7
(lp116
F-0.8822127806031936
aF-0.35819157048271927
aF-0.8410375951670056
aF1.768641699601632
aF0.8618901776345824
aF0.539681788021531
aF0.4037479319464884
aF-0.8902298865236423
aF0.9677064988749313
aF-0.3028173856866764
aF-0.29762259558813686
aF-0.39629489757047504
aF-0.2973437183717079
aF-0.36943161462909013
asg9
(lp117
F-0.0129789448869847
aF0.6319200233493109
aF0.8474254278770897
aF0.9431956106578917
aF0.6349755375194384
aF0.49473543644219603
aF1.4784258303639555
aF1.7290171476835121
aF-0.3586686079322004
aF0.016868323240109475
aF-0.39560798085935733
aF-0.16253351021537732
aF1.0657552971281976
aF-0.5755932243475125
asg11
g1
(g12
g3
Ntp118
Rp119
(dp120
g16
(F-0.0
F0.0
F-1.0
tp121
sbsbag1
(g2
g3
Ntp122
Rp123
(dp124
g7
(lp125
F-1.0239153800319771
aF-0.2947186281821124
aF0.15187999549375894
aF0.9502663167682041
aF0.844450276834642
aF0.21848109584494102
aF0.001896419335822297
aF0.8120618249087419
aF1.0289375890930281
aF-1.6561864062996055
aF-0.05471618289456695
aF0.4451231140646651
aF-1.0545459068137288
aF-0.36943161462909013
asg9
(lp126
F-0.0129789448869847
aF0.09851133222576225
aF0.4081933394392125
aF1.2608099033580256
aF0.7646686813456375
aF0.18002004616940132
aF-0.3053004970130029
aF1.6577879148084387
aF-0.5777051963130048
aF-0.3543946405370743
aF-1.286296720229347
aF-0.2588278297240873
aF-0.21494770119405868
aF-0.568432668787953
asg11
g1
(g12
g3
Ntp127
Rp128
(dp129
g16
(F-0.0
F0.0
F-1.0
tp130
sbsbag1
(g2
g3
Ntp131
Rp132
(dp133
g7
(lp134
F-0.8670598304415147
aF1.5944036648474706
aF0.028864560108210285
aF0.9502663167682041
aF0.8642283127738608
aF0.6305486004969304
aF0.3889147460966098
aF0.8083630859290835
aF1.0029769004686981
aF-1.2048844922104345
aF-0.28788852080275285
aF-0.9740532423578541
aF-0.3081801449781157
aF-0.36943161462909013
asg9
(lp135
F-0.0129789448869847
aF0.631920023349311
aF0.744227235393354
aF0.8775543534295254
aF0.7646686813456375
aF0.5204263872945286
aF0.7741775542231344
aF-0.29003662730605234
aF0.929463851280208
aF-0.7130015935835324
aF0.10388204518323993
aF-0.24787732905948812
aF-0.16631893495499991
aF-0.06869783377257631
asg11
g1
(g12
g3
Ntp136
Rp137
(dp138
g16
(F-0.0
F0.0
F-1.0
tp139
sbsbag1
(g2
g3
Ntp140
Rp141
(dp142
g7
(lp143
F-0.9824753536200709
aF1.5208444297524566
aF0.023166686464881132
aF0.9502663167682041
aF1.0490431430157263
aF0.27949539412889013
aF0.49824246188097243
aF0.3249576130240381
aF0.9677064988749312
aF-0.6951910889493791
aF-0.28788852080275285
aF-1.4224709703362652
aF-0.2973437183717079
aF-0.7492800625285834
asg9
(lp144
F-0.012978944886984702
aF0.6319200233493109
aF2.148815035299595
aF0.9042284395925937
aF0.7646686813456375
aF0.8173865455944993
aF-0.03376797148751032
aF0.9482828045307229
aF-1.1723838951569105
aF-0.7153683741429414
aF0.25050202069542327
aF0.17369791485123331
aF-0.5713416528719983
aF0.4752229448757956
asg11
g1
(g12
g3
Ntp145
Rp146
(dp147
g16
(F-0.0
F0.0
F-1.0
tp148
sbsbag1
(g2
g3
Ntp149
Rp150
(dp151
g7
(lp152
F-0.016645705185833304
aF0.09552804881811094
aF0.2352881812398112
aF0.041215842086233745
aF0.9649885573763387
aF0.8625181949434936
aF0.5382377039062569
aF0.22823523344250118
aF0.6785661619733644
aF-0.48717254210800875
aF-0.6261275309465921
aF-0.0753127033203832
aF-0.5163882756240176
aF-0.37094303551549923
asg9
(lp153
F-0.09414121350050442
aF0.4314628482853956
aF0.3353258418571421
aF0.6403830564283665
aF0.09598382788098858
aF0.28010926648955436
aF0.4812576987252686
aF0.8131033649540802
aF0.3312189593644952
aF-0.9418076970667286
aF-0.8471365603208442
aF-0.1632171978257998
aF-0.04712185206517128
aF-0.42084351170368683
asg11
g1
(g12
g3
Ntp154
Rp155
(dp156
g16
(F-0.0
F0.0
F-1.0
tp157
sbsbag1
(g2
g3
Ntp158
Rp159
(dp160
g7
(lp161
F0.024792198813781273
aF0.06741399800162208
aF-0.06833306087537878
aF0.0855717413827958
aF0.7809884272669716
aF-0.0644811114238858
aF0.5067410328467989
aF-1.0191360993464742
aF-0.5528902107563538
aF-0.6612465756657818
aF-0.7237575883754968
aF-0.29269574339943905
aF-0.5070906116843369
aF-0.38366986678978077
asg9
(lp162
F0.48465253481675
aF0.32110898365987234
aF0.6783059756664537
aF0.6387306782229963
aF0.16216178465891443
aF0.3178948415335318
aF0.4610596756530879
aF0.9531922362745353
aF0.3418547702020029
aF-0.9562568935714526
aF-0.08873888201403277
aF-0.14283097987043722
aF0.0018486320506811236
aF1.8243714876755848
asg11
g1
(g12
g3
Ntp163
Rp164
(dp165
g16
(F-0.0
F0.0
F-1.0
tp166
sbsbag1
(g2
g3
Ntp167
Rp168
(dp169
g7
(lp170
F-0.009011409215702058
aF0.799981554971718
aF0.8983950711852433
aF0.2219512510575137
aF0.30474653521371636
aF0.7490346479050448
aF0.4846140396089784
aF0.36431704243777563
aF-0.6818956194289598
aF-0.7275870690526947
aF-0.4866963399649385
aF0.029281246348784602
aF-0.5820493537419265
aF-0.4589088605553139
asg9
(lp171
F0.9376606764464955
aF-0.7035451966406924
aF0.4446940680577775
aF-0.08249969593851116
aF0.19487021373654295
aF0.2604735502421904
aF0.046776809902977196
aF0.48395744734546375
aF2.0436426932531755
aF-0.6050510041990562
aF0.2530235431602324
aF0.029018585532430478
aF0.4487802515859325
aF0.4150029492690455
asg11
g1
(g12
g3
Ntp172
Rp173
(dp174
g16
(F-0.0
F0.0
F-1.0
tp175
sbsbag1
(g2
g3
Ntp176
Rp177
(dp178
g7
(lp179
F-0.016645705185833304
aF-0.15763726677047185
aF0.07635487830694918
aF0.041215842086233745
aF0.9649885573763387
aF2.3071696289843775
aF0.5382377039062569
aF0.9171851110439883
aF0.6785661619733644
aF-0.48717254210800875
aF-0.6261275309465921
aF-0.0753127033203832
aF-0.5163882756240176
aF-0.643166176218871
asg9
(lp180
F-0.09414121350050442
aF0.36871444789871055
aF0.3353258418571421
aF0.6403830564283665
aF0.09598382788098858
aF-0.16735711148701704
aF0.4812576987252686
aF0.8679645860102605
aF-0.0513433872589979
aF-1.8219711981888962
aF-0.8471365603208442
aF-0.43116394467754043
aF-0.04712185206517128
aF-0.42084351170368683
asg11
g1
(g12
g3
Ntp181
Rp182
(dp183
g16
(F-0.0
F0.0
F-1.0
tp184
sbsbag1
(g2
g3
Ntp185
Rp186
(dp187
g7
(lp188
F0.024792198813781273
aF0.06741399800162208
aF-0.06833306087537878
aF0.0855717413827958
aF0.7809884272669716
aF-0.0644811114238858
aF0.5067410328467989
aF-1.0191360993464742
aF-0.5528902107563538
aF-0.6612465756657818
aF-0.7237575883754968
aF-0.29269574339943905
aF-0.5070906116843369
aF-0.38366986678978077
asg9
(lp189
F0.48465253481675
aF0.32110898365987234
aF0.6783059756664537
aF0.6387306782229963
aF0.16216178465891443
aF0.3178948415335318
aF0.4610596756530879
aF0.9531922362745353
aF0.3418547702020029
aF-0.9562568935714526
aF-0.08873888201403277
aF-0.14283097987043722
aF0.0018486320506811236
aF1.8243714876755848
asg11
g1
(g12
g3
Ntp190
Rp191
(dp192
g16
g166
sbsbag1
(g2
g3
Ntp193
Rp194
(dp195
g7
(lp196
F-0.016645705185833304
aF-0.4822594628622602
aF0.2352881812398112
aF-0.2946483681772002
aF0.9649885573763387
aF0.8625181949434936
aF0.5382377039062569
aF0.22823523344250118
aF-0.1036672533976839
aF-0.48717254210800875
aF-0.6261275309465921
aF-0.0753127033203832
aF-0.5163882756240176
aF-0.37094303551549923
asg9
(lp197
F-0.38508126670222975
aF0.4314628482853956
aF-0.6345506022814201
aF0.17890081109426986
aF0.09598382788098858
aF0.28010926648955436
aF0.4812576987252686
aF0.8131033649540802
aF0.3312189593644952
aF-0.9418076970667286
aF-0.8471365603208442
aF-0.1632171978257998
aF0.6252169486278542
aF-0.49369363195195415
asg11
g1
(g12
g3
Ntp198
Rp199
(dp200
g16
(F-0.0
F0.0
F-1.0
tp201
sbsbag1
(g2
g3
Ntp202
Rp203
(dp204
g7
(lp205
F-0.009011409215702058
aF0.799981554971718
aF1.3830366740611268
aF0.2219512510575137
aF0.30474653521371636
aF0.7490346479050448
aF0.04713734552827864
aF0.4787466892239799
aF-0.6818956194289598
aF-0.7389655090765619
aF-0.4866963399649385
aF0.029281246348784602
aF-0.5820493537419265
aF-0.7768589611899497
asg9
(lp206
F0.9471412183859153
aF-0.7035451966406924
aF0.4446940680577775
aF-0.08249969593851116
aF0.008885265784233182
aF0.2604735502421904
aF0.046776809902977196
aF0.3386749712583774
aF1.4538405916827688
aF-0.6050510041990562
aF0.2530235431602324
aF-0.07386971995197625
aF0.5242481772398256
aF0.02121281567093558
asg11
g1
(g12
g3
Ntp207
Rp208
(dp209
g16
(F-0.0
F0.0
F-1.0
tp210
sbsbag1
(g2
g3
Ntp211
Rp212
(dp213
g7
(lp214
F-0.00010174135395595854
aF0.5864736013721585
aF-0.9042011055013541
aF-0.570704054037336
aF0.1813436922229265
aF1.5754549855568438
aF0.505571053089285
aF0.8117989431639765
aF0.045583514447919665
aF-0.5749349388278395
aF-0.4679634779412731
aF0.07099783641243064
aF-1.3274235439721134
aF-0.4586273098305792
asg9
(lp215
F0.9330895021714705
aF0.015484429748531772
aF0.2030953467092947
aF0.33220835224973416
aF1.0975113498759805
aF0.29679050277594277
aF0.7522418617611438
aF-0.204301760258018
aF2.006495685753528
aF-1.4080600907745793
aF-1.708025454040057
aF0.32141745747408734
aF0.586548414670849
aF0.489941632322963
asg11
g1
(g12
g3
Ntp216
Rp217
(dp218
g16
(F-0.0
F0.0
F-1.0
tp219
sbsbag1
(g2
g3
Ntp220
Rp221
(dp222
g7
(lp223
F-0.009400047742704414
aF0.2389271284694737
aF0.8776095421855361
aF-0.027938010255868208
aF1.0693451085133385
aF-3.730398390962134
aF0.9221827912890767
aF0.07558675384435248
aF-0.54151282270314
aF-0.6610660884987121
aF-0.8111720807842395
aF-0.36679247559885314
aF-1.110076066827632
aF-0.3894881591510315
asg9
(lp224
F0.6518799832353722
aF0.31612652332806923
aF0.27936202221428114
aF2.0060998133045893
aF0.06151261203010364
aF0.2923472832102372
aF0.3034195216014078
aF0.9731246335031573
aF0.6805534367417837
aF-1.114738052476273
aF-0.8251012423900566
aF0.2621296905490172
aF-0.1033257204725581
aF1.442895592084854
asg11
g1
(g12
g3
Ntp225
Rp226
(dp227
g16
(F-0.0
F0.0
F-1.0
tp228
sbsbag1
(g2
g3
Ntp229
Rp230
(dp231
g7
(lp232
F-0.018962220249411257
aF0.3499253579781194
aF1.660819431731848
aF1.285838389237155
aF0.2634699341211043
aF-0.44145963888386264
aF1.187266752469472
aF-0.03278833677398607
aF0.870839367579123
aF0.47982937933582037
aF-0.8819734037669409
aF-0.9684713098347197
aF-2.5454912714862292
aF-0.628303952209873
asg9
(lp233
F-0.09456061612575117
aF-0.2967318635511331
aF0.624303917873354
aF-0.3013509963029499
aF0.4133408788512314
aF-0.20821412362406977
aF0.3591409572389604
aF-0.35006607257223266
aF0.5613022807802686
aF-2.509005705648351
aF0.10805932085467142
aF-0.6412606033336483
aF-2.9373554285770873
aF0.7981040939809328
asg11
g1
(g12
g3
Ntp234
Rp235
(dp236
g16
(F-0.0
F0.0
F-1.0
tp237
sbsbag1
(g2
g3
Ntp238
Rp239
(dp240
g7
(lp241
F-0.018962220249411257
aF0.3499253579781194
aF1.660819431731848
aF1.285838389237155
aF0.2634699341211043
aF-0.44145963888386264
aF1.187266752469472
aF-0.03278833677398607
aF0.870839367579123
aF0.47982937933582037
aF-0.8819734037669409
aF-0.9684713098347197
aF-2.5454912714862292
aF-0.628303952209873
asg9
(lp242
F-0.09456061612575117
aF-0.2967318635511331
aF0.624303917873354
aF-0.3013509963029499
aF0.4133408788512314
aF-0.20821412362406977
aF0.3591409572389604
aF-0.35006607257223266
aF0.5613022807802686
aF-2.509005705648351
aF0.10805932085467142
aF-0.6412606033336483
aF-2.9373554285770873
aF0.7981040939809328
asg11
g1
(g12
g3
Ntp243
Rp244
(dp245
g16
g237
sbsbag1
(g2
g3
Ntp246
Rp247
(dp248
g7
(lp249
F0.09281074749998586
aF-0.8510086393873255
aF-0.04169465275792228
aF0.1528712708966562
aF0.04588902983048898
aF-0.07351680787724696
aF1.3164937128005474
aF0.7592955525822409
aF0.6614651479724032
aF0.454226376459933
aF-0.8973751818207187
aF-0.9366905478817287
aF-1.9688515168236576
aF-0.21699992343935298
asg9
(lp250
F-0.03484497663194919
aF-0.04446448684440801
aF0.6820754556246682
aF-0.5433722631704055
aF0.7989897230008207
aF-0.9661008722174724
aF0.3991950063915949
aF1.2090564869143072
aF0.42151475318088427
aF0.5106275921526199
aF-1.3951150723560595
aF-0.40903314288111026
aF-1.1550493312113879
aF0.008778380891719367
asg11
g1
(g12
g3
Ntp251
Rp252
(dp253
g16
(F-0.0
F0.0
F-1.0
tp254
sbsbag1
(g2
g3
Ntp255
Rp256
(dp257
g7
(lp258
F-0.018962220249411257
aF0.3499253579781194
aF1.660819431731848
aF1.285838389237155
aF0.2634699341211043
aF-0.44145963888386264
aF1.187266752469472
aF-0.03278833677398607
aF0.870839367579123
aF0.47982937933582037
aF-0.8819734037669409
aF-0.9684713098347197
aF-2.5454912714862292
aF-0.628303952209873
asg9
(lp259
F-0.09456061612575117
aF-0.2967318635511331
aF0.624303917873354
aF-0.3013509963029499
aF0.4133408788512314
aF-0.20821412362406977
aF0.3591409572389604
aF-0.35006607257223266
aF0.5613022807802686
aF-2.509005705648351
aF0.10805932085467142
aF-0.6412606033336483
aF-2.9373554285770873
aF0.7981040939809328
asg11
g1
(g12
g3
Ntp260
Rp261
(dp262
g16
g237
sbsbag1
(g2
g3
Ntp263
Rp264
(dp265
g7
(lp266
F-0.018962220249411257
aF0.27162879641212323
aF1.660819431731848
aF1.5633397407325558
aF0.5299296345910196
aF-0.44145963888386264
aF1.187266752469472
aF-0.03278833677398607
aF0.870839367579123
aF0.47982937933582037
aF-0.8819734037669409
aF-0.21040920743460934
aF-2.5454912714862292
aF-0.628303952209873
asg9
(lp267
F0.9843710413742287
aF-0.2967318635511331
aF0.26106140053333954
aF-0.3013509963029499
aF0.4133408788512314
aF-0.05429066577265307
aF0.3591409572389604
aF-0.35006607257223266
aF0.5613022807802686
aF-2.509005705648351
aF-0.27471695501865323
aF-0.6412606033336483
aF-2.9373554285770873
aF1.3648982189220091
asg11
g1
(g12
g3
Ntp268
Rp269
(dp270
g16
(F-0.0
F0.0
F-1.0
tp271
sbsbag1
(g2
g3
Ntp272
Rp273
(dp274
g7
(lp275
F-0.1344408589970169
aF-0.48446445839560853
aF0.9007859505379294
aF0.7002487561548321
aF-0.17597349400887327
aF0.41500946998406574
aF0.3171494304055714
aF0.3538956766299706
aF0.6171931092117977
aF-0.0321825422178907
aF-0.8203288550704385
aF-0.2014090214498686
aF0.015771253077195513
aF0.35869485831989956
asg9
(lp276
F-0.04948758534686521
aF0.49141602753324304
aF0.8941887325062525
aF0.17623086944728203
aF0.007185298415188751
aF1.886491839655969
aF-0.007775129581486795
aF1.394216703280007
aF0.7720552333038819
aF-0.6097120727108984
aF-1.431666246388391
aF-0.5661098320988962
aF-1.3888831931032204
aF-0.7703161586122262
asg11
g1
(g12
g3
Ntp277
Rp278
(dp279
g16
(F-0.0
F0.0
F-1.0
tp280
sbsbag1
(g2
g3
Ntp281
Rp282
(dp283
g7
(lp284
F-0.041295270097826894
aF-0.1681114759479963
aF1.0263436985459187
aF-0.33775748726232957
aF-0.8727886785477557
aF1.195835074670393
aF0.3540338740159118
aF0.6771678338781072
aF-0.036301686565021814
aF-0.7182437704296933
aF-0.6429087009945996
aF-0.1422692060034902
aF0.04234421671564251
aF0.06708272039885844
asg9
(lp285
F0.2013663491408133
aF0.27516556515123636
aF0.7897740752934865
aF-0.06664122196753998
aF-0.5468874003866752
aF0.21602212805802115
aF1.262686898193916
aF-0.29633321519590805
aF-0.3529831784213312
aF0.5947667489471632
aF-0.640443839548812
aF-0.8803244039482494
aF-0.46043540312234643
aF-0.5428919601017279
asg11
g1
(g12
g3
Ntp286
Rp287
(dp288
g16
(F-0.0
F0.0
F-1.0
tp289
sbsbag1
(g2
g3
Ntp290
Rp291
(dp292
g7
(lp293
F-0.019415757305722352
aF-1.3520533564842934
aF0.36035438310772366
aF0.25948497298490475
aF-0.23074611290833316
aF0.5025159961308144
aF-0.05484761133722857
aF0.33816063707393296
aF-0.036961144011925684
aF-0.9835498579226822
aF-0.31196855405414364
aF-1.820216985993912
aF-0.5774908087109935
aF-0.2283470592788448
asg9
(lp294
F-0.45274822461799724
aF-0.044001261886602305
aF0.5365099537072122
aF0.45218799631918266
aF1.2425141474365016
aF-0.42496969835252457
aF0.6405192170269927
aF-0.1762310303155228
aF-0.06044438250462514
aF-1.6884564174943755
aF-0.05422603517820181
aF-0.5583348290832768
aF-0.817187902563245
aF-0.5244010971428503
asg11
g1
(g12
g3
Ntp295
Rp296
(dp297
g16
(F-0.0
F0.0
F-1.0
tp298
sbsbag1
(g2
g3
Ntp299
Rp300
(dp301
g7
(lp302
F-0.1344408589970169
aF-0.48446445839560853
aF0.9007859505379294
aF0.7002487561548321
aF-0.17597349400887327
aF0.41500946998406574
aF0.3171494304055714
aF0.3538956766299706
aF0.6171931092117977
aF-0.0321825422178907
aF-0.8203288550704385
aF-0.2014090214498686
aF0.015771253077195513
aF0.35869485831989956
asg9
(lp303
F-0.04948758534686521
aF0.49141602753324304
aF0.8941887325062525
aF0.17623086944728203
aF0.007185298415188751
aF1.886491839655969
aF-0.007775129581486795
aF1.394216703280007
aF0.7720552333038819
aF-0.6097120727108984
aF-1.431666246388391
aF-0.5661098320988962
aF-1.3888831931032204
aF-0.7703161586122262
asg11
g1
(g12
g3
Ntp304
Rp305
(dp306
g16
g280
sbsbag1
(g2
g3
Ntp307
Rp308
(dp309
g7
(lp310
F-0.041295270097826894
aF-0.1681114759479963
aF0.8604261580684541
aF0.3471155991516863
aF-1.5132649019887312
aF0.8146823011004118
aF0.3540338740159118
aF1.0010277775888685
aF-0.036301686565021814
aF-0.7182437704296933
aF-0.6429087009945996
aF-0.1422692060034902
aF0.04234421671564251
aF0.06708272039885844
asg9
(lp311
F0.2013663491408133
aF-0.2669618449032556
aF0.7897740752934865
aF-0.06664122196753998
aF-0.5468874003866752
aF0.21602212805802115
aF1.262686898193916
aF-0.29633321519590805
aF-0.3529831784213312
aF0.3389150412450341
aF-0.640443839548812
aF-0.7698884295720471
aF-0.46043540312234643
aF-0.5428919601017279
asg11
g1
(g12
g3
Ntp312
Rp313
(dp314
g16
(F-0.0
F0.0
F-1.0
tp315
sbsbag1
(g2
g3
Ntp316
Rp317
(dp318
g7
(lp319
F-0.019415757305722352
aF-1.3520533564842934
aF0.36035438310772366
aF0.25948497298490475
aF-0.23074611290833316
aF0.5025159961308144
aF-0.05484761133722857
aF0.33816063707393296
aF-0.036961144011925684
aF-0.9835498579226822
aF-0.31196855405414364
aF-1.820216985993912
aF-0.5774908087109935
aF-0.2283470592788448
asg9
(lp320
F-0.45274822461799724
aF-0.044001261886602305
aF0.5365099537072122
aF0.45218799631918266
aF1.2425141474365016
aF-0.42496969835252457
aF0.6405192170269927
aF-0.1762310303155228
aF-0.06044438250462514
aF-1.6884564174943755
aF-0.05422603517820181
aF-0.5583348290832768
aF-0.817187902563245
aF-0.5244010971428503
asg11
g1
(g12
g3
Ntp321
Rp322
(dp323
g16
g298
sbsbag1
(g2
g3
Ntp324
Rp325
(dp326
g7
(lp327
F-0.1344408589970169
aF-0.48446445839560853
aF0.18861178685349178
aF0.7002487561548321
aF-0.576058947588746
aF0.7005972129741767
aF0.9506987774879373
aF0.3538956766299706
aF0.6675072964403838
aF0.1463072600685673
aF-0.4769155706927496
aF-0.7896646122986679
aF0.8746001559022347
aF-0.34177888582336813
asg9
(lp328
F-0.04948758534686521
aF0.49141602753324304
aF0.8941887325062525
aF0.17623086944728203
aF0.007185298415188751
aF1.886491839655969
aF-0.007775129581486795
aF1.394216703280007
aF0.05094432388941672
aF-0.6097120727108984
aF-1.431666246388391
aF-0.9449260153362393
aF-1.5841632223758437
aF-0.7703161586122262
asg11
g1
(g12
g3
Ntp329
Rp330
(dp331
g16
(F-0.0
F0.0
F-1.0
tp332
sbsbag1
(g2
g3
Ntp333
Rp334
(dp335
g7
(lp336
F0.010542161431426614
aF-0.49971906492931384
aF-0.4648645284738991
aF0.17912557183514516
aF-0.22301558391875542
aF-0.15832127766156912
aF-0.10192160844265788
aF0.33815098844751795
aF-0.06258720673310658
aF-1.1239799074454164
aF0.26434235689254054
aF-0.3127213541806115
aF-0.5629069934636837
aF-0.38963938765282524
asg9
(lp337
F-0.5910469104640557
aF-0.08741326944924327
aF0.29227408089670703
aF0.2410150976799998
aF1.2663665754825981
aF-0.4292691109158062
aF0.6687061660576772
aF-0.46814685027756986
aF-0.029459175121990627
aF-1.496047702738357
aF-0.31101867523082044
aF-0.45033146333454954
aF-1.492501232272815
aF0.37648763272761077
asg11
g1
(g12
g3
Ntp338
Rp339
(dp340
g16
(F-0.0
F0.0
F-1.0
tp341
sbsbag1
(g2
g3
Ntp342
Rp343
(dp344
g7
(lp345
F0.008772070880263143
aF-0.40382614855429017
aF1.7089580619310034
aF0.13703129685729754
aF-0.3114160342099656
aF-0.4726805793626525
aF0.4084035307329956
aF0.7497301567564776
aF0.5628318834538495
aF-0.7468377698992559
aF-0.44037544748924295
aF-0.2493873150818582
aF-1.7037310721474133
aF-1.5193322959737916
asg9
(lp346
F0.7695113377121121
aF0.5331664219498181
aF1.1102295868087915
aF-1.2564671681155843
aF1.1612002754258066
aF1.0200954839765228
aF1.45622617213345
aF3.0366816083092134
aF-0.15433566231810214
aF-0.2189801081133813
aF-0.760902675533299
aF-0.8460765782462767
aF-0.9862209561650782
aF-0.033817136793981906
asg11
g1
(g12
g3
Ntp347
Rp348
(dp349
g16
(F-0.0
F0.0
F-1.0
tp350
sbsbag1
(g2
g3
Ntp351
Rp352
(dp353
g7
(lp354
F-0.0010520449848532218
aF0.3976973971298174
aF-0.5618133712851507
aF0.5211118841432073
aF-0.6267871465455406
aF0.7986161977794264
aF2.7133600089788854
aF1.370227603190897
aF-0.1755315790830184
aF-0.297752729715657
aF1.2532798272719965
aF-0.05691367224090216
aF-0.3708176619142659
aF-0.22139305603246737
asg9
(lp355
F-0.08879377009156869
aF0.35643799446756785
aF2.049122035162876
aF1.1525803530857472
aF-0.3234654759505998
aF0.5545405027394635
aF0.2233983301595868
aF-0.3459752054356442
aF1.2912878775457757
aF-0.8897227589856456
aF-1.224058256476347
aF-1.099235829558523
aF-0.47299805531879896
aF0.11280044414996454
asg11
g1
(g12
g3
Ntp356
Rp357
(dp358
g16
(F-0.0
F0.0
F-1.0
tp359
sbsbag1
(g2
g3
Ntp360
Rp361
(dp362
g7
(lp363
F-0.00026742218662091644
aF-1.9843873250926147
aF1.2207236427663326
aF0.12410381765787315
aF0.3783696914921251
aF1.4458808762211537
aF0.34939874232799756
aF0.3406029668309259
aF-0.09717530789493734
aF0.09193304287596027
aF-0.7265295447703037
aF-1.869810192695643
aF-1.3668586862795857
aF0.26838816063556536
asg9
(lp364
F-0.5700397677529636
aF0.2168099883638918
aF0.5815763179623586
aF0.8396094929360772
aF1.7595579980790277
aF-0.6021480713087729
aF-0.45161091701708705
aF-0.8260898185704371
aF-0.12959307314374058
aF-0.7081095482528548
aF-1.5651090798675225
aF-0.2818667697746791
aF-0.048762582122995224
aF-0.3749175728469224
asg11
g1
(g12
g3
Ntp365
Rp366
(dp367
g16
(F-0.0
F0.0
F-1.0
tp368
sbsbag1
(g2
g3
Ntp369
Rp370
(dp371
g7
(lp372
F-0.21660077005413467
aF0.2562287568715885
aF-0.15045996266312298
aF0.7778112129234799
aF0.5654180587122044
aF1.4815774844600762
aF0.7092919448193534
aF-0.02508313946748228
aF2.35408255993276
aF-0.4969785299031167
aF-0.1369696195809457
aF-1.4280876520274435
aF-0.247631376877745
aF0.6101513750733224
asg9
(lp373
F-0.011883371256332986
aF2.437402054167067
aF-0.33044999123642227
aF0.5222424564681658
aF0.29392310394929916
aF0.8420623257526163
aF-0.6096059075756516
aF-1.3281973218688148
aF0.2629468028199048
aF-0.4202405663492731
aF-0.3821798119945925
aF-0.6829273971796461
aF0.03641876199333986
aF0.26274613171917094
asg11
g1
(g12
g3
Ntp374
Rp375
(dp376
g16
(F-0.0
F0.0
F-1.0
tp377
sbsbag1
(g2
g3
Ntp378
Rp379
(dp380
g7
(lp381
F-0.011173009344198223
aF0.6478955732557937
aF0.5201492610188222
aF0.19189155538540614
aF0.8458078525084034
aF-0.3749115892906394
aF1.4768553849804538
aF0.5188532262969517
aF0.61509649234177
aF-0.21670639494143268
aF-0.5209773755790676
aF-0.34584849870306733
aF-0.8264167692311422
aF-0.9141503467834299
asg9
(lp382
F-0.6499385072975894
aF0.27345964687762864
aF0.7399982157978116
aF0.7220905091857555
aF1.0914842355918966
aF-0.02689421792579086
aF0.7604172573024708
aF0.6160691744026745
aF0.8377804822161449
aF-0.9287383949105614
aF-0.28161833417283905
aF-0.1420543683870412
aF0.04889940011851712
aF-0.4239760695942776
asg11
g1
(g12
g3
Ntp383
Rp384
(dp385
g16
(F-0.0
F0.0
F-1.0
tp386
sbsbag1
(g2
g3
Ntp387
Rp388
(dp389
g7
(lp390
F-0.015687178034704333
aF0.45622993710772924
aF-0.32412261083084903
aF0.9505916836405922
aF0.8631629716452364
aF-1.2874955353451392
aF1.1464484083266093
aF-0.2552945704871429
aF2.5704416537217654
aF-0.10119985623857436
aF-0.6080054320707182
aF-1.7259642610844426
aF-0.8452911595608449
aF-0.8124418927290142
asg9
(lp391
F-0.25326968143114365
aF1.7574654564034886
aF1.1645497365403108
aF0.6708313351737898
aF0.14402951766915953
aF0.871520748181313
aF1.3827261875459786
aF-0.08314295606849975
aF0.44035855557362136
aF-0.4719694768261252
aF-0.2975409352445637
aF-0.5351799042858179
aF0.047814790002172994
aF-0.3375088481872034
asg11
g1
(g12
g3
Ntp392
Rp393
(dp394
g16
(F-0.0
F0.0
F-1.0
tp395
sbsbag1
(g2
g3
Ntp396
Rp397
(dp398
g7
(lp399
F-0.015687178034704333
aF0.45622993710772924
aF-1.1706781561810398
aF1.7104018886499404
aF0.5570902465286796
aF-1.4594935270069822
aF1.1464484083266093
aF-0.2552945704871429
aF2.5704416537217654
aF-0.10119985623857436
aF-0.6080054320707182
aF-1.7780708307186104
aF-1.1086662825983198
aF-0.8124418927290142
asg9
(lp400
F-0.7901553330793338
aF1.7574654564034886
aF1.1645497365403108
aF1.600766182581209
aF0.14402951766915953
aF0.34537142230200757
aF1.3827261875459786
aF-0.6351400742680707
aF0.44035855557362136
aF-0.6150158548973916
aF-0.8878079344834738
aF-0.5351799042858179
aF0.047814790002172994
aF-0.608687587524948
asg11
g1
(g12
g3
Ntp401
Rp402
(dp403
g16
(F-0.0
F0.0
F-1.0
tp404
sbsbag1
(g2
g3
Ntp405
Rp406
(dp407
g7
(lp408
F-0.015687178034704333
aF0.45622993710772924
aF-0.32412261083084903
aF0.9505916836405922
aF0.8631629716452364
aF-1.2874955353451392
aF1.1464484083266093
aF-0.2552945704871429
aF2.5704416537217654
aF-0.10119985623857436
aF-0.6080054320707182
aF-1.7259642610844426
aF-0.8452911595608449
aF-0.8124418927290142
asg9
(lp409
F-0.25326968143114365
aF1.7574654564034886
aF1.1645497365403108
aF0.6708313351737898
aF0.14402951766915953
aF0.871520748181313
aF1.3827261875459786
aF-0.08314295606849975
aF0.44035855557362136
aF-0.4719694768261252
aF-0.2975409352445637
aF-0.5351799042858179
aF0.047814790002172994
aF-0.3375088481872034
asg11
g1
(g12
g3
Ntp410
Rp411
(dp412
g16
g395
sbsbag1
(g2
g3
Ntp413
Rp414
(dp415
g7
(lp416
F-0.03966220591990799
aF0.5699634843785933
aF0.1576399072886857
aF0.79202374106218
aF0.24017517612355543
aF0.9718176633265198
aF0.04047147966353293
aF0.02462447434090087
aF0.986875399126651
aF-0.17486994707665493
aF-0.4256429606766232
aF-0.7598135458139623
aF-0.8153151300042353
aF-0.5311492819192443
asg9
(lp417
F-0.5849852676071182
aF0.6144064705061605
aF0.8564188977146255
aF0.8227619466749967
aF0.36278989701628905
aF0.47805883320643294
aF0.6140004824474973
aF0.4756008319691617
aF0.01651132365739494
aF-0.4830241544784102
aF-0.7583852806934276
aF-0.8099741941563809
aF-0.7463644613808514
aF-0.7972595399622935
asg11
g1
(g12
g3
Ntp418
Rp419
(dp420
g16
(F-0.0
F0.0
F-1.0
tp421
sbsbag1
(g2
g3
Ntp422
Rp423
(dp424
g7
(lp425
F-0.046080209989626586
aF0.2958045504065425
aF0.1365426328810624
aF0.3357126047312252
aF0.15131209335122464
aF0.598244674022581
aF0.6824457624556458
aF0.04865909368031174
aF0.0745520564656258
aF-0.8434501221284872
aF-0.49835357077198617
aF-0.13848853598442368
aF-0.22104992437212367
aF-0.11613149638425047
asg9
(lp426
F-0.9348507997853271
aF0.3763756928053026
aF0.593531280675732
aF0.05448935517048126
aF0.37537095443527113
aF0.2521583769995349
aF0.8262937183340092
aF0.30428378617973273
aF0.309096103094326
aF-0.3678125048216605
aF-0.0690443988393884
aF-0.6520102973197377
aF-0.6219993909227295
aF-0.4405653816279522
asg11
g1
(g12
g3
Ntp427
Rp428
(dp429
g16
(F-0.0
F0.0
F-1.0
tp430
sbsbag1
(g2
g3
Ntp431
Rp432
(dp433
g7
(lp434
F-0.046080209989626586
aF0.2958045504065425
aF0.1365426328810624
aF0.3357126047312252
aF0.15131209335122464
aF0.598244674022581
aF0.6824457624556458
aF0.04865909368031174
aF0.0745520564656258
aF-0.8434501221284872
aF-0.49835357077198617
aF-0.13848853598442368
aF-0.22104992437212367
aF-0.11613149638425047
asg9
(lp435
F-0.9348507997853271
aF0.3763756928053026
aF0.593531280675732
aF0.05448935517048126
aF0.37537095443527113
aF0.2521583769995349
aF0.8262937183340092
aF0.30428378617973273
aF0.309096103094326
aF-0.3678125048216605
aF-0.0690443988393884
aF-0.6520102973197377
aF-0.6219993909227295
aF-0.4405653816279522
asg11
g1
(g12
g3
Ntp436
Rp437
(dp438
g16
g430
sbsbag1
(g2
g3
Ntp439
Rp440
(dp441
g7
(lp442
F-0.046080209989626586
aF0.3942628092915744
aF1.8562335003838781
aF0.2053688981570906
aF0.5650244829592331
aF0.9108631797121508
aF1.2122927198965066
aF-0.31969133460484234
aF0.0745520564656258
aF-1.943047181488619
aF-0.8858845535008174
aF-0.09195944315339621
aF-0.3325411473431471
aF-0.11613149638425047
asg9
(lp443
F-0.275380733598084
aF0.3763756928053026
aF0.48801069307860284
aF0.05448935517048126
aF0.4740864741717954
aF0.0681089864795371
aF1.5779746515971356
aF0.407709776134982
aF0.309096103094326
aF-0.5590623921815719
aF-0.4093712845070824
aF-0.5876943363531816
aF-0.7987696224539912
aF-1.2086458021005568
asg11
g1
(g12
g3
Ntp444
Rp445
(dp446
g16
(F-0.0
F0.0
F-1.0
tp447
sbsbag1
(g2
g3
Ntp448
Rp449
(dp450
g7
(lp451
F-0.046080209989626586
aF0.4994806189029447
aF0.04144328143320608
aF0.2614794584819767
aF0.23146068644619958
aF0.7774871712941258
aF1.1903639067566105
aF0.6929905895948272
aF0.0745520564656258
aF-0.6924826197691736
aF-0.8895381487376961
aF-0.09434556330390657
aF-0.40038160194891814
aF-0.11613149638425047
asg9
(lp452
F-0.5805526571900128
aF0.3763756928053026
aF0.5618732329388485
aF0.05448935517048126
aF0.42527492615090956
aF-0.20029573453599447
aF0.8156452278872334
aF0.3133899755028408
aF0.309096103094326
aF-0.5136965036128542
aF-0.3884150140416498
aF-0.9773759518119748
aF0.4144307679363992
aF-0.8468823624251223
asg11
g1
(g12
g3
Ntp453
Rp454
(dp455
g16
(F-0.0
F0.0
F-1.0
tp456
sbsbag1
(g2
g3
Ntp457
Rp458
(dp459
g7
(lp460
F-0.3117115075029031
aF0.14293742281941813
aF0.7567751777496761
aF0.6975883709981407
aF0.34345340001251035
aF0.1624108094885186
aF0.3341740248876409
aF0.38066090699398925
aF0.9683008357064362
aF-0.2925985919885321
aF-0.18375297920482248
aF-0.8747235797324241
aF-0.2966199776863855
aF-0.2167357170306543
asg9
(lp461
F-0.0019405544411650322
aF0.17222007089541846
aF0.32631009175606707
aF0.615986082914743
aF0.7460974131293019
aF0.5620787421218213
aF0.6823381476101911
aF0.6349344003289914
aF0.0925310044949682
aF-0.6870577194617192
aF-0.5574012538832855
aF-0.11052374704307122
aF-0.9894761330280549
aF-0.6328036904202222
asg11
g1
(g12
g3
Ntp462
Rp463
(dp464
g16
(F-0.0
F0.0
F-1.0
tp465
sbsbag1
(g2
g3
Ntp466
Rp467
(dp468
g7
(lp469
F-0.6813549346521421
aF-0.48716635155259547
aF1.0211385702289144
aF0.6975883709981407
aF-0.3066776261086719
aF0.1624108094885186
aF0.3341740248876409
aF0.38066090699398925
aF0.9683008357064362
aF-0.6524672268231828
aF-0.18375297920482248
aF-0.5648201162580994
aF-0.2966199776863855
aF-0.19852457207017618
asg9
(lp470
F-0.0019405544411650322
aF0.17222007089541846
aF0.32631009175606707
aF0.615986082914743
aF0.7460974131293019
aF0.5620787421218213
aF1.629029097711154
aF0.6349344003289914
aF-0.30754577369290365
aF-0.30326155748922695
aF-0.754310462630626
aF-0.11052374704307122
aF-0.9894761330280549
aF-0.6328036904202222
asg11
g1
(g12
g3
Ntp471
Rp472
(dp473
g16
(F-0.0
F0.0
F-1.0
tp474
sbsbag1
(g2
g3
Ntp475
Rp476
(dp477
g7
(lp478
F-0.6813549346521421
aF-0.48716635155259547
aF1.0211385702289144
aF0.6975883709981407
aF-0.3066776261086719
aF0.1624108094885186
aF0.3341740248876409
aF0.38066090699398925
aF0.9683008357064362
aF-0.6524672268231828
aF-0.18375297920482248
aF-0.5648201162580994
aF-0.2966199776863855
aF-0.19852457207017618
asg9
(lp479
F-0.0019405544411650322
aF0.17222007089541846
aF0.32631009175606707
aF0.615986082914743
aF0.7460974131293019
aF0.5620787421218213
aF1.629029097711154
aF0.6349344003289914
aF-0.30754577369290365
aF-0.30326155748922695
aF-0.754310462630626
aF-0.11052374704307122
aF-0.9894761330280549
aF-0.6328036904202222
asg11
g1
(g12
g3
Ntp480
Rp481
(dp482
g16
g474
sbsbag1
(g2
g3
Ntp483
Rp484
(dp485
g7
(lp486
F-0.3117115075029031
aF0.14293742281941813
aF0.7567751777496761
aF0.6975883709981407
aF0.34345340001251035
aF0.1624108094885186
aF0.3341740248876409
aF0.38066090699398925
aF0.9683008357064362
aF-0.2925985919885321
aF-0.18375297920482248
aF-0.8747235797324241
aF-0.2966199776863855
aF-0.2167357170306543
asg9
(lp487
F-0.0019405544411650322
aF0.17222007089541846
aF0.32631009175606707
aF0.615986082914743
aF0.7460974131293019
aF0.5620787421218213
aF0.6823381476101911
aF0.6349344003289914
aF0.0925310044949682
aF-0.6870577194617192
aF-0.5574012538832855
aF-0.11052374704307122
aF-0.9894761330280549
aF-0.6328036904202222
asg11
g1
(g12
g3
Ntp488
Rp489
(dp490
g16
g465
sbsbag1
(g2
g3
Ntp491
Rp492
(dp493
g7
(lp494
F-0.6813549346521421
aF-0.48716635155259547
aF1.0211385702289144
aF1.0031566384303507
aF-0.3066776261086719
aF0.1624108094885186
aF0.5378579407490938
aF0.38066090699398925
aF0.9683008357064362
aF-0.6524672268231828
aF-0.18375297920482248
aF-0.5648201162580994
aF0.23576778675705368
aF-0.19852457207017618
asg9
(lp495
F-0.0019405544411650322
aF0.17222007089541846
aF-0.17831554872295852
aF0.615986082914743
aF0.5579328557198598
aF0.5620787421218213
aF1.629029097711154
aF0.6349344003289914
aF-1.3683588390961503
aF-0.30326155748922695
aF-0.754310462630626
aF-0.11052374704307122
aF-0.9894761330280549
aF-0.6328036904202222
asg11
g1
(g12
g3
Ntp496
Rp497
(dp498
g16
(F-0.0
F0.0
F-1.0
tp499
sbsbag1
(g2
g3
Ntp500
Rp501
(dp502
g7
(lp503
F-0.6447007528939106
aF0.054076488699295905
aF0.9074418849485439
aF0.6975883709981407
aF0.14268493755448602
aF0.1624108094885186
aF0.3341740248876409
aF0.38066090699398925
aF0.9683008357064362
aF-0.6663039472289917
aF-0.18375297920482248
aF-0.9321764814341571
aF-0.2966199776863855
aF-0.20903238571709992
asg9
(lp504
F-0.0019405544411650322
aF0.17222007089541846
aF0.32631009175606707
aF0.615986082914743
aF0.746097413129302
aF0.5620787421218213
aF2.0131021651851095
aF0.6349344003289914
aF0.1316637175012573
aF-0.660225602561911
aF-0.7627243870047296
aF-0.11052374704307122
aF-0.9894761330280549
aF-0.6328036904202221
asg11
g1
(g12
g3
Ntp505
Rp506
(dp507
g16
(F-0.0
F0.0
F-1.0
tp508
sbsbag1
(g2
g3
Ntp509
Rp510
(dp511
g7
(lp512
F-0.3483656892611346
aF-0.3983054174324732
aF0.8704718630300465
aF0.6975883709981407
aF-0.10590916365064759
aF0.1624108094885186
aF0.3341740248876409
aF0.38066090699398925
aF0.9683008357064362
aF-0.27876187158272325
aF-0.18375297920482248
aF-0.5073672145563664
aF-0.2966199776863855
aF-0.20622790338373054
asg9
(lp513
F-0.0019405544411650322
aF0.17222007089541846
aF0.32631009175606707
aF0.615986082914743
aF0.746097413129302
aF0.5620787421218213
aF0.29826508013623565
aF0.6349344003289914
aF-0.34667848669919277
aF-0.33009367438903514
aF-0.548987329509182
aF-0.11052374704307122
aF-0.9894761330280549
aF-0.6328036904202221
asg11
g1
(g12
g3
Ntp514
Rp515
(dp516
g16
(F-0.0
F0.0
F-1.0
tp517
sbsbag1
(g2
g3
Ntp518
Rp519
(dp520
g7
(lp521
F-0.037025935992335335
aF1.015107096795011
aF0.7409451397667981
aF0.6975883709981407
aF-0.19888376033932204
aF0.1624108094885186
aF0.3341740248876409
aF0.34475701194834285
aF0.9683008357064362
aF-0.5340785528531521
aF-0.18375297920482248
aF-0.7156870052598944
aF-0.2966199776863855
aF0.8001169930796034
asg9
(lp522
F-0.0019405544411650322
aF-0.45856597324948123
aF0.32631009175606707
aF0.615986082914743
aF0.7460974131293019
aF0.5620787421218213
aF1.4341607727672616
aF0.6349344003289914
aF-0.419149184770501
aF-0.4813542865231977
aF-0.6337062246901832
aF-0.1105237470430712
aF-0.9822565051069845
aF-0.6328036904202222
asg11
g1
(g12
g3
Ntp523
Rp524
(dp525
g16
(F-0.0
F0.0
F-1.0
tp526
sbsbag1
(g2
g3
Ntp527
Rp528
(dp529
g7
(lp530
F-0.6812914025199702
aF-0.44462029975464135
aF0.7114653117300906
aF-0.289940289126018
aF0.16740201141926614
aF0.1624108094885186
aF0.3341740248876409
aF0.38066090699398925
aF0.9683008357064363
aF-0.8091675135226151
aF-0.18375297920482248
aF-0.4289823532803353
aF-0.2966199776863855
aF-0.20087777118525235
asg9
(lp531
F-0.0019405544411650322
aF0.17222007089541846
aF-0.06936449451839583
aF0.5439722971432616
aF1.0188562472919873
aF0.5620787421218213
aF2.7261341237461454
aF-0.29153142024967693
aF-0.3560355927908991
aF0.41646452955393565
aF-0.660624760074747
aF-0.42859395908494513
aF-1.5686062950210304
aF-0.6328036904202222
asg11
g1
(g12
g3
Ntp532
Rp533
(dp534
g16
(F-0.0
F0.0
F-1.0
tp535
sbsbag1
(g2
g3
Ntp536
Rp537
(dp538
g7
(lp539
F-0.15741413454345404
aF-0.2220895012362541
aF1.0828274910388602
aF0.022173446081832
aF-0.9692035691439818
aF0.7772526683543788
aF0.5539155443627872
aF0.9083811977759731
aF0.9775562013671713
aF-0.3942315933808944
aF-0.3607182543930104
aF-1.1661758070123098
aF-0.2966199776863855
aF0.5193592729390262
asg9
(lp540
F-0.0019405544411650322
aF0.12355932180171122
aF-0.31163958040934003
aF1.0559903957816994
aF1.6545805943418936
aF0.30045093947657964
aF0.8206278638630587
aF0.6865856110519982
aF0.791022967744553
aF-0.6623056995092759
aF-1.432204966511434
aF-0.1856272017840958
aF-0.7672834039042316
aF-0.8032053172915561
asg11
g1
(g12
g3
Ntp541
Rp542
(dp543
g16
(F-0.0
F0.0
F-1.0
tp544
sbsbag1
(g2
g3
Ntp545
Rp546
(dp547
g7
(lp548
F-0.721691746117891
aF-0.23728643727432003
aF1.1834977614386155
aF-1.233356539817891
aF-0.16368624981091795
aF0.1446169522903889
aF0.35833282304457953
aF0.5794933741228447
aF0.9037439047672515
aF-0.24509898919966297
aF0.24645322876484144
aF-0.7756834386525234
aF-0.325737120497033
aF1.6859827901071345
asg9
(lp549
F-0.0019405544411650322
aF-0.23851132547172088
aF0.4192475210342218
aF0.7890806795722343
aF0.863198982899651
aF0.5620787421218213
aF0.621130778107073
aF0.4271408944819074
aF-0.46747030100931897
aF-0.04427359637793321
aF-0.6031477437765083
aF-0.5296208624326234
aF-0.8640893476347229
aF-0.45775930603005555
asg11
g1
(g12
g3
Ntp550
Rp551
(dp552
g16
(F-0.0
F0.0
F-1.0
tp553
sbsbag1
(g2
g3
Ntp554
Rp555
(dp556
g7
(lp557
F-0.9896813330867241
aF0.5618931627158547
aF0.4032569890653066
aF0.7698163005668982
aF0.13089301597451664
aF0.6852285748801559
aF0.7035679727427194
aF0.25113961643005256
aF0.25015617819843106
aF-0.5874388343722724
aF-0.8271667905734755
aF-0.660440066550219
aF-0.28841534894297494
aF-0.18393143225012143
asg9
(lp558
F-0.0247081092238155
aF0.9803226888176798
aF0.5305197817721868
aF0.8817763827221605
aF0.8280805585848893
aF0.08310354343389714
aF0.8810981671001211
aF0.2856865236898657
aF0.21375594211510718
aF-0.7599566516977426
aF-0.7808988978535495
aF-0.08617122263821686
aF-0.959231444190591
aF-0.9135374698207801
asg11
g1
(g12
g3
Ntp559
Rp560
(dp561
g16
(F-0.0
F0.0
F-1.0
tp562
sbsbag1
(g2
g3
Ntp563
Rp564
(dp565
g7
(lp566
F-0.8280437826181776
aF0.5597909721045005
aF0.4537419717712926
aF1.1015886002103221
aF-0.6329016538137778
aF0.6499052166925425
aF0.13429686875414418
aF0.29809998709364527
aF-1.7672708995202981
aF1.9510904248434227
aF-0.9101819311767592
aF-0.6064130651010448
aF-0.30699614619167703
aF-0.15837153696636802
asg9
(lp567
F-0.02348471099531448
aF0.6919688859565607
aF1.0946999672361586
aF0.6379617402237105
aF0.7742024769768696
aF0.11391558579512609
aF-0.9934495267191366
aF0.3368254993265523
aF0.37556599783389527
aF-1.7675224771096953
aF-0.8219152430646917
aF-0.49318024695097484
aF-0.9321497053144108
aF-0.646585990250251
asg11
g1
(g12
g3
Ntp568
Rp569
(dp570
g16
(F-0.0
F0.0
F-1.0
tp571
sbsbag1
(g2
g3
Ntp572
Rp573
(dp574
g7
(lp575
F-0.2173507792360157
aF0.7719763228185033
aF1.530781179311969
aF0.28768923407719676
aF0.007535334434838822
aF1.2862353851680965
aF0.5756116074755697
aF-0.047342301288074165
aF0.8234878229792503
aF-0.20868953268136523
aF-0.17705174717377234
aF0.3546086175095351
aF0.30604146622067413
aF-0.7983978669769431
asg9
(lp576
F-0.016059052617324765
aF0.923744924266187
aF-0.021718447804016716
aF0.8323876439355753
aF0.8548691124721153
aF1.2224568383783343
aF0.9961669205510224
aF0.8429672893992294
aF0.14054724119719492
aF-0.2530603036797105
aF-0.7433414326789484
aF-0.08559657243366943
aF-0.8445481715848897
aF0.13297946433010893
asg11
g1
(g12
g3
Ntp577
Rp578
(dp579
g16
(F-0.0
F0.0
F-1.0
tp580
sbsbag1
(g2
g3
Ntp581
Rp582
(dp583
g7
(lp584
F-0.9896813330867241
aF0.8659533420295185
aF0.4032569890653066
aF-0.5434526619111563
aF0.13089301597451664
aF0.813986943925314
aF1.7626320116723715
aF0.25113961643005256
aF0.24982899086427535
aF-0.5874388343722724
aF-0.8271667905734755
aF-0.660440066550219
aF-0.28841534894297494
aF-0.18393143225012143
asg9
(lp585
F-0.0247081092238155
aF0.8173095136655846
aF0.5305197817721868
aF1.0769401675209995
aF0.8280805585848893
aF0.08310354343389714
aF1.6146627951408945
aF0.2856865236898657
aF0.7415572759632714
aF-1.4114361543400282
aF-0.8994572293206414
aF0.43476067350697367
aF-0.959231444190591
aF-0.9135374698207801
asg11
g1
(g12
g3
Ntp586
Rp587
(dp588
g16
(F-0.0
F0.0
F-1.0
tp589
sbsbag1
(g2
g3
Ntp590
Rp591
(dp592
g7
(lp593
F-0.8280437826181776
aF0.5597909721045005
aF0.4537419717712926
aF1.1015886002103221
aF-0.6329016538137778
aF0.6499052166925425
aF0.13429686875414418
aF0.29809998709364527
aF-1.7672708995202981
aF1.9510904248434227
aF-0.9101819311767592
aF-0.6064130651010448
aF-0.30699614619167703
aF-0.15837153696636802
asg9
(lp594
F-0.02348471099531448
aF0.6919688859565607
aF1.0946999672361586
aF0.6379617402237105
aF0.7742024769768696
aF0.11391558579512609
aF-0.9934495267191366
aF0.3368254993265523
aF0.37556599783389527
aF-1.7675224771096953
aF-0.8219152430646917
aF-0.49318024695097484
aF-0.9321497053144108
aF-0.646585990250251
asg11
g1
(g12
g3
Ntp595
Rp596
(dp597
g16
g571
sbsbag1
(g2
g3
Ntp598
Rp599
(dp600
g7
(lp601
F-0.8934699883758006
aF1.2883998205265157
aF1.530781179311969
aF0.28768923407719676
aF0.007535334434838822
aF1.0057077563759156
aF0.5756116074755697
aF0.14989876600860674
aF-0.37397358595325325
aF0.7191152512976189
aF-0.08582824624420726
aF0.3546086175095351
aF0.30604146622067413
aF-0.5138819591190477
asg9
(lp602
F-0.016059052617324765
aF0.923744924266187
aF-0.021718447804016716
aF0.7027107861143425
aF0.8548691124721153
aF1.2224568383783343
aF0.9961669205510224
aF0.8429672893992294
aF-0.0303768018755462
aF-0.04830378203416072
aF-0.7433414326789484
aF-0.08559657243366943
aF-0.8193193677414465
aF0.02762555691416904
asg11
g1
(g12
g3
Ntp603
Rp604
(dp605
g16
(F-0.0
F0.0
F-1.0
tp606
sbsbag1
(g2
g3
Ntp607
Rp608
(dp609
g7
(lp610
F-1.114114101452576
aF1.1238946183851575
aF0.21354256687065873
aF1.6358306169005827
aF-0.24244826457242674
aF0.8635121955463773
aF0.12657158476528335
aF0.48111862598448474
aF0.6606493575262251
aF2.0215079266986153
aF-1.825747206439502
aF-0.6591384689946137
aF0.4076481989889441
aF0.6574772570936867
asg9
(lp611
F-0.016782726848580898
aF0.9902578695985156
aF0.5247224170905646
aF0.5938211105909063
aF0.8045540721003526
aF-0.6097617856633913
aF-0.3545836821908159
aF-0.4995029229824988
aF0.1431933742712771
aF-0.36927406169302734
aF-0.708052639438427
aF-0.12252026389660539
aF-0.9861611647997657
aF-0.5360134376834148
asg11
g1
(g12
g3
Ntp612
Rp613
(dp614
g16
(F-0.0
F0.0
F-1.0
tp615
sbsbag1
(g2
g3
Ntp616
Rp617
(dp618
g7
(lp619
F-0.3814405819470373
aF1.4499990524511448
aF0.6687122669488724
aF0.6260410248174648
aF0.47734195729930834
aF1.2306263703422888
aF0.8346572033217852
aF-0.6877137768286259
aF-2.756673218974009
aF-0.5057785793312779
aF-0.6119655963791604
aF-0.642876013343155
aF-0.9218701463326282
aF0.9725744928504078
asg9
(lp620
F-0.013938744909353134
aF0.21327458366528482
aF1.1891838190597503
aF0.8572420068256568
aF0.5865269548999698
aF0.04616753799795184
aF0.43910664362682317
aF0.9070285139862522
aF0.25560210862366545
aF-1.5760994521849412
aF-0.9055313953128741
aF-1.5102256850946518
aF-0.34034154824149915
aF-1.4504572084376928
asg11
g1
(g12
g3
Ntp621
Rp622
(dp623
g16
(F-0.0
F0.0
F-1.0
tp624
sbsbag1
(g2
g3
Ntp625
Rp626
(dp627
g7
(lp628
F-1.0130836778404275
aF0.6849334822152457
aF0.015692010588043592
aF0.7701206141612109
aF-0.3894337252920941
aF2.835033502949216
aF0.8896629233229956
aF-0.11303616530204397
aF0.8134023893937443
aF0.05010724858676761
aF-0.5790028517302712
aF-0.7185729384535919
aF0.07156192419619957
aF-0.21085544102885057
asg9
(lp629
F-2.449716701966171
aF0.83240056266121
aF-0.3469799104772195
aF0.5565065917458942
aF0.8440430072376843
aF0.7457809272137471
aF1.33041787736292
aF0.4262258077300015
aF0.49063181752931595
aF-0.12250905259747519
aF-0.771621734895336
aF-0.4472931163783339
aF-0.0537539060465817
aF-1.2556919164287408
asg11
g1
(g12
g3
Ntp630
Rp631
(dp632
g16
(F-0.0
F0.0
F-1.0
tp633
sbsbag1
(g2
g3
Ntp634
Rp635
(dp636
g7
(lp637
F-0.001479512462525534
aF0.33427998201366005
aF0.35704073130717395
aF0.8476390161043696
aF0.47789014067047086
aF0.09780952236557083
aF0.03757689231719785
aF0.3233954015227135
aF0.635255970975996
aF-0.9554048956020047
aF-0.1181656127862889
aF-0.28656847449907574
aF-0.5429071709339092
aF-0.05990504756535875
asg9
(lp638
F-0.22215034964136737
aF0.4328489722877926
aF0.33970109557051675
aF0.6803209165002808
aF0.7346290219152894
aF0.4915269302967128
aF0.04158330990622994
aF0.7865305303210498
aF0.3513655872572359
aF-0.564610679163525
aF-0.03386007602730534
aF-0.17302755473588294
aF-0.0895670930955238
aF-0.07905022319077026
asg11
g1
(g12
g3
Ntp639
Rp640
(dp641
g16
(F-0.0
F0.0
F-1.0
tp642
sbsbag1
(g2
g3
Ntp643
Rp644
(dp645
g7
(lp646
F0.033303396444095114
aF0.33427998201366005
aF-0.13628604875539074
aF0.476625702575287
aF0.47789014067047086
aF0.09780952236557083
aF0.03757689231719785
aF-0.09120802115576243
aF0.9157773362325694
aF-0.5352913140137741
aF-0.5009431253844091
aF-1.2027735032933444
aF-0.5865486368355148
aF-0.05438054009084271
asg9
(lp647
F0.007110543626349373
aF0.4328489722877926
aF0.33970109557051675
aF0.6803209165002808
aF0.6334028529244033
aF0.4915269302967128
aF0.04158330990622994
aF0.7865305303210499
aF0.3513655872572359
aF-0.564610679163525
aF-0.03386007602730534
aF-0.17302755473588294
aF-0.0895670930955238
aF-0.07905022319077026
asg11
g1
(g12
g3
Ntp648
Rp649
(dp650
g16
(F-0.0
F0.0
F-1.0
tp651
sbsbag1
(g2
g3
Ntp652
Rp653
(dp654
g7
(lp655
F-0.001479512462525534
aF0.33427998201366005
aF0.35704073130717395
aF0.06713419735735793
aF1.000981286656745
aF0.09780952236557083
aF-0.8696261778417623
aF0.3233954015227135
aF1.2557851816487795
aF-1.2688646450721257
aF-0.1181656127862889
aF-0.28656847449907574
aF-0.5429071709339092
aF0.43254873342534617
asg9
(lp656
F-1.4396780355298935
aF0.4328489722877926
aF0.33970109557051675
aF0.9860999864188831
aF0.7346290219152894
aF0.4915269302967128
aF0.32261791744744084
aF0.7865305303210498
aF0.3513655872572359
aF-0.564610679163525
aF-0.1576228004812318
aF-0.19361158647672608
aF-0.5909535379657561
aF-0.07905022319077026
asg11
g1
(g12
g3
Ntp657
Rp658
(dp659
g16
(F-0.0
F0.0
F-1.0
tp660
sbsbag1
(g2
g3
Ntp661
Rp662
(dp663
g7
(lp664
F-0.001479512462525534
aF0.4650858617269804
aF0.35704073130717395
aF0.6503940540090369
aF0.5679245216970117
aF0.25180706748341014
aF-1.108146176058918
aF0.3233954015227135
aF-0.3002897664952774
aF-1.2935452876344862
aF-0.28722365866903066
aF-0.30929536881076947
aF-0.5429071709339092
aF0.5546396287425568
asg9
(lp665
F-1.6701558088905613
aF0.5071095024210924
aF0.33970109557051675
aF0.5192680977720371
aF0.7346290219152894
aF0.49152693029671274
aF0.3593958858301214
aF0.7596151398848409
aF0.3513655872572359
aF0.06756299860696656
aF-0.01285162845631501
aF-0.1785601146255521
aF-0.41775939548933655
aF-0.2730740622735459
asg11
g1
(g12
g3
Ntp666
Rp667
(dp668
g16
(F-0.0
F0.0
F-1.0
tp669
sbsbag1
(g2
g3
Ntp670
Rp671
(dp672
g7
(lp673
F0.013483117980680599
aF0.33427998201366005
aF0.5642414361838901
aF-0.05877748216405253
aF1.254020585366651
aF0.09780952236557083
aF-0.8860266831153882
aF0.13426569361406956
aF0.9510885943246469
aF-0.7028570877865
aF-0.2730739881695803
aF-0.8554791897858163
aF-0.5305572053544358
aF0.3937668440574576
asg9
(lp674
F-0.7853215527372026
aF0.4328489722877926
aF0.33970109557051675
aF0.7004199978088501
aF0.7092172223715719
aF0.4915269302967128
aF0.44701640303378665
aF0.7865305303210499
aF0.3513655872572359
aF-0.564610679163525
aF-0.07775388885290194
aF-0.1836528830854487
aF-0.17298350664971857
aF-0.07905022319077026
asg11
g1
(g12
g3
Ntp675
Rp676
(dp677
g16
(F-0.0
F0.0
F-1.0
tp678
sbsbag1
(g2
g3
Ntp679
Rp680
(dp681
g7
(lp682
F0.01834076600088898
aF0.33427998201366005
aF-0.34348675363210684
aF0.6025373820966975
aF0.22485084196056465
aF0.09780952236557083
aF0.05397739759082382
aF0.09792168675288151
aF1.220473923556702
aF-1.1012988712993996
aF-0.3460347500011177
aF-0.6338627880066039
aF-0.5988986024149883
aF-0.015598650722954167
asg9
(lp683
F-0.6472459391663414
aF0.4328489722877926
aF0.33970109557051675
aF0.9660009051103138
aF0.6588146524681209
aF0.4915269302967128
aF-0.0828151756801159
aF0.7865305303210498
aF0.3513655872572359
aF-0.564610679163525
aF-0.11372898765563522
aF-0.1829862581271603
aF-0.5075371244115613
aF-0.07905022319077026
asg11
g1
(g12
g3
Ntp684
Rp685
(dp686
g16
(F-0.0
F0.0
F-1.0
tp687
sbsbag1
(g2
g3
Ntp688
Rp689
(dp690
g7
(lp691
F-0.001479512462525534
aF0.33427998201366005
aF0.3212320381018172
aF1.6085516536782816
aF-0.05283572550101079
aF0.00383374650587405
aF0.03757689231719785
aF0.7967651500359301
aF0.635255970975996
aF-1.5196399707051258
aF-0.20794039925439164
aF-0.28656847449907574
aF0.2178874631395611
aF0.24455228354122166
asg9
(lp692
F-0.22215034964136737
aF0.6277268513293561
aF0.33970109557051675
aF0.6803209165002808
aF0.9297049971727867
aF1.155040697383166
aF0.10293479275010431
aF0.7865305303210498
aF0.3513655872572359
aF-0.4422939086290209
aF0.5363600364861477
aF-0.18280221794021875
aF-0.2246201135585095
aF0.35510446603778817
asg11
g1
(g12
g3
Ntp693
Rp694
(dp695
g16
(F-0.0
F0.0
F-1.0
tp696
sbsbag1
(g2
g3
Ntp697
Rp698
(dp699
g7
(lp700
F-0.10360599372987772
aF0.41501638279527264
aF-0.13628604875539074
aF0.476625702575287
aF0.47789014067047086
aF-0.48317892157492004
aF0.2390700876390891
aF0.4237902985882427
aF1.7040145391892705
aF-0.5352913140137741
aF-0.5009431253844091
aF-1.2027735032933444
aF-0.2587603061675745
aF-0.05438054009084271
asg9
(lp701
F0.007110543626349373
aF1.0490603903795854
aF0.33970109557051675
aF0.6803209165002808
aF0.6334028529244033
aF0.4915269302967128
aF0.15014209729481645
aF1.3183751599437976
aF0.5786294866364777
aF-0.564610679163525
aF-0.03386007602730534
aF-0.07743172996749594
aF-0.09883180068904335
aF-0.07905022319077026
asg11
g1
(g12
g3
Ntp702
Rp703
(dp704
g16
(F-0.0
F0.0
F-1.0
tp705
sbsbag1
(g2
g3
Ntp706
Rp707
(dp708
g7
(lp709
F-0.0013929481210502935
aF0.33427998201366005
aF-0.3356095581151143
aF0.2120858372985528
aF0.7086869213125572
aF0.09780952236557083
aF0.03757689231719785
aF-0.2695194577572436
aF0.19594970505803422
aF-0.39821182005920086
aF-0.09880183609432729
aF-0.5802123054163166
aF-0.26809044333596277
aF-0.36124509966659557
asg9
(lp710
F-0.39374273627240874
aF0.4328489722877926
aF0.4878433175927648
aF0.3753086721124954
aF1.137505246940785
aF0.9318507117130634
aF0.04158330990622994
aF0.7865305303210499
aF1.4481418054047488
aF-0.564610679163525
aF-0.03386007602730534
aF-0.17302755473588294
aF-0.0895670930955238
aF-0.4527861522996589
asg11
g1
(g12
g3
Ntp711
Rp712
(dp713
g16
(F-0.0
F0.0
F-1.0
tp714
sbsbag1
(g2
g3
Ntp715
Rp716
(dp717
g7
(lp718
F1.1024095104238238
aF0.35416736153706335
aF0.6541594201209209
aF0.45844392706754167
aF0.6875447710822877
aF0.39734794603652557
aF1.454573699897992
aF0.7394354365509426
aF0.5804987031931501
aF-0.5348009542717589
aF-0.5020675097230037
aF0.19856508622524605
aF-1.1823914883033892
aF0.9816404668717875
asg9
(lp719
F0.04826745037472568
aF0.5887199764375877
aF-0.21659338226672376
aF0.5221207585039305
aF0.359299445563127
aF0.9147445216095074
aF1.6882862306517359
aF1.9661198660285846
aF0.3613749378003674
aF0.5276480463368521
aF-0.21167888914506827
aF-0.09190967096958468
aF-0.34105620019243543
aF-1.02639061357326
asg11
g1
(g12
g3
Ntp720
Rp721
(dp722
g16
(F-0.0
F0.0
F-1.0
tp723
sbsbag1
(g2
g3
Ntp724
Rp725
(dp726
g7
(lp727
F-0.0829683543581129
aF0.8108469728341058
aF0.1117842457389655
aF0.5668137637256798
aF0.21801419983088544
aF0.4800886965195015
aF0.5483820406931497
aF0.42494444038225354
aF0.3622278153577345
aF-0.23435738691664632
aF-0.28736674566609377
aF-0.1827156975463512
aF-0.849066245251109
aF-0.38387338237600066
asg9
(lp728
F-0.0007731151596634955
aF0.7340273816152728
aF0.6484077894354311
aF0.05169282241193762
aF0.5530069618517868
aF0.16690666278159705
aF0.458857726835762
aF0.9542887121342073
aF0.285265149883678
aF-0.32934346028250105
aF-0.10730721663380594
aF-0.08633437236164976
aF-0.8042314133713412
aF-0.8130741545280756
asg11
g1
(g12
g3
Ntp729
Rp730
(dp731
g16
(F-0.0
F0.0
F-1.0
tp732
sbsbag1
(g2
g3
Ntp733
Rp734
(dp735
g7
(lp736
F-0.0829683543581129
aF0.8108469728341058
aF0.1117842457389655
aF0.5668137637256798
aF0.21801419983088544
aF0.4800886965195015
aF0.5483820406931497
aF0.42494444038225354
aF0.3622278153577345
aF-0.23435738691664632
aF-0.28736674566609377
aF-0.1827156975463512
aF-0.849066245251109
aF-0.38387338237600066
asg9
(lp737
F-0.0007731151596634955
aF0.7340273816152728
aF0.6484077894354311
aF0.05169282241193762
aF0.5530069618517868
aF0.16690666278159705
aF0.458857726835762
aF0.9542887121342073
aF0.285265149883678
aF-0.32934346028250105
aF-0.10730721663380594
aF-0.08633437236164976
aF-0.8042314133713412
aF-0.8130741545280756
asg11
g1
(g12
g3
Ntp738
Rp739
(dp740
g16
g732
sbsbag1
(g2
g3
Ntp741
Rp742
(dp743
g7
(lp744
F-1.0944625681119313
aF0.4933053743417275
aF0.1117842457389655
aF0.5668137637256798
aF0.564374856796126
aF0.4800886965195015
aF0.43689803119762466
aF0.42494444038225354
aF0.2278947808756006
aF-0.4640758845931896
aF-0.28736674566609377
aF-0.1827156975463512
aF-0.849066245251109
aF-0.38387338237600066
asg9
(lp745
F-0.0007731151596634955
aF-0.11876503070553002
aF-0.15590600456795578
aF-0.07361835401639194
aF0.5530069618517868
aF0.7523234597110053
aF0.42439414681251547
aF2.132765325853474
aF0.285265149883678
aF-0.32934346028250105
aF-0.06578904929742894
aF-0.08633437236164976
aF-0.5369588328045154
aF-0.4517380777751536
asg11
g1
(g12
g3
Ntp746
Rp747
(dp748
g16
(F-0.0
F0.0
F-1.0
tp749
sbsbag1
(g2
g3
Ntp750
Rp751
(dp752
g7
(lp753
F1.1092543988117485
aF0.8108469728341058
aF0.08582777220587423
aF0.44714837581543254
aF1.1129928586438134
aF0.48008869651950153
aF0.5483820406931497
aF0.42494444038225354
aF0.3622278153577345
aF-0.2412639125067872
aF-0.28736674566609377
aF-0.3292230639867385
aF-1.6014615093062385
aF-0.57799914985755
asg9
(lp754
F-0.0007731151596634955
aF1.034260420548996
aF1.2419167488733527
aF0.05169282241193763
aF0.3080849970206336
aF0.16690666278159705
aF-0.03155554651306197
aF0.9542887121342073
aF0.5855699425026487
aF-0.32934346028250105
aF-0.10730721663380594
aF-0.08633437236164976
aF-0.8042314133713412
aF-0.8130741545280756
asg11
g1
(g12
g3
Ntp755
Rp756
(dp757
g16
(F-0.0
F0.0
F-1.0
tp758
sbsbag1
(g2
g3
Ntp759
Rp760
(dp761
g7
(lp762
F-0.1559945602184088
aF0.7627429159569467
aF0.11178424573896549
aF0.5668137637256798
aF0.07676782652234454
aF0.4800886965195015
aF0.517505778633927
aF0.42494444038225354
aF0.3288000097044774
aF-0.5006669826363102
aF-0.28736674566609377
aF-0.1827156975463512
aF-0.849066245251109
aF-0.38387338237600066
asg9
(lp763
F-0.0007731151596634955
aF0.023993262610263175
aF0.904470097004397
aF0.06539984928912576
aF0.5530069618517868
aF0.5745981900300261
aF0.4337998236486097
aF2.450202878718161
aF0.285265149883678
aF-0.32934346028250105
aF-0.07577506126533642
aF-0.08633437236164976
aF-0.8958226552268458
aF-0.547181001035967
asg11
g1
(g12
g3
Ntp764
Rp765
(dp766
g16
(F-0.0
F0.0
F-1.0
tp767
sbsbag1
(g2
g3
Ntp768
Rp769
(dp770
g7
(lp771
F0.21072991547483316
aF0.8741422023314903
aF0.9073006691109162
aF0.5668137637256798
aF0.37227059864657364
aF0.4921706049681262
aF0.5844583779900251
aF0.42494444038225354
aF0.33865730266910243
aF-1.3307837321188982
aF-0.5396962646067514
aF-0.1827156975463512
aF-0.48467256219278243
aF-0.24722655989409437
asg9
(lp772
F-0.0007731151596634955
aF-0.21818390507592708
aF0.522916182314108
aF0.6936435017966192
aF0.5530069618517868
aF0.545050589408417
aF1.019444377179438
aF0.5439191751619138
aF1.0385720994928973
aF-0.32934346028250105
aF0.044570109379161366
aF-0.08633437236164976
aF-0.6580907228620432
aF-0.30879378681972225
asg11
g1
(g12
g3
Ntp773
Rp774
(dp775
g16
(F-0.0
F0.0
F-1.0
tp776
sbsbag1
(g2
g3
Ntp777
Rp778
(dp779
g7
(lp780
F-0.2976422177145616
aF0.1069992502796957
aF0.8279960145304559
aF0.21187389300126247
aF2.7166953827802347
aF0.40108787914155486
aF0.008646941273162151
aF1.2067346366812526
aF0.638717776951435
aF0.3641957782512695
aF-0.10935876283137642
aF0.03167878670136453
aF-0.9161899557087667
aF-0.14090964911974707
asg9
(lp781
F0.02694935991991663
aF1.2784806003896785
aF1.806624931322158
aF0.06560485229534611
aF0.45204066943204146
aF0.02869980631547798
aF0.9848275359124087
aF1.3595049330312596
aF-0.03329431836788006
aF-0.6641131932535468
aF-0.13474765849566683
aF1.0840258579810553
aF-0.2215747318799746
aF0.24731344588378582
asg11
g1
(g12
g3
Ntp782
Rp783
(dp784
g16
(F-0.0
F0.0
F-1.0
tp785
sbsbag1
(g2
g3
Ntp786
Rp787
(dp788
g7
(lp789
F-0.0829683543581129
aF0.8108469728341058
aF0.1117842457389655
aF0.5668137637256798
aF0.21801419983088544
aF0.4800886965195015
aF0.5483820406931497
aF0.42494444038225354
aF0.3622278153577345
aF-0.23435738691664632
aF-0.28736674566609377
aF-0.1827156975463512
aF-0.849066245251109
aF-0.38387338237600066
asg9
(lp790
F-0.0007731151596634955
aF0.7340273816152728
aF0.6484077894354311
aF0.05169282241193762
aF0.5530069618517868
aF0.16690666278159705
aF0.458857726835762
aF0.9542887121342073
aF0.285265149883678
aF-0.32934346028250105
aF-0.10730721663380594
aF-0.08633437236164976
aF-0.8042314133713412
aF-0.8130741545280756
asg11
g1
(g12
g3
Ntp791
Rp792
(dp793
g16
(F-0.0
F0.0
F-1.0
tp794
sbsbag1
(g2
g3
Ntp795
Rp796
(dp797
g7
(lp798
F-0.0829683543581129
aF0.8108469728341058
aF0.1117842457389655
aF0.5668137637256798
aF0.21801419983088544
aF0.4800886965195015
aF0.5483820406931497
aF0.42494444038225354
aF0.3622278153577345
aF-0.23435738691664632
aF-0.28736674566609377
aF-0.1827156975463512
aF-0.849066245251109
aF-0.38387338237600066
asg9
(lp799
F-0.0007731151596634955
aF0.7340273816152728
aF0.6484077894354311
aF0.05169282241193762
aF0.5530069618517868
aF0.16690666278159705
aF0.458857726835762
aF0.9542887121342073
aF0.285265149883678
aF-0.32934346028250105
aF-0.10730721663380594
aF-0.08633437236164976
aF-0.8042314133713412
aF-0.8130741545280756
asg11
g1
(g12
g3
Ntp800
Rp801
(dp802
g16
g794
sbsbag1
(g2
g3
Ntp803
Rp804
(dp805
g7
(lp806
F-1.0944625681119313
aF0.4933053743417275
aF0.1117842457389655
aF0.5668137637256798
aF0.564374856796126
aF0.4800886965195015
aF0.43689803119762466
aF0.42494444038225354
aF0.2278947808756006
aF-0.4640758845931896
aF-0.28736674566609377
aF-0.1827156975463512
aF-0.849066245251109
aF-0.38387338237600066
asg9
(lp807
F-0.0007731151596634955
aF-0.11876503070553002
aF-0.15590600456795578
aF-0.07361835401639194
aF0.5530069618517868
aF0.7523234597110053
aF0.42439414681251547
aF2.132765325853474
aF0.285265149883678
aF-0.32934346028250105
aF-0.06578904929742894
aF-0.08633437236164976
aF-0.5369588328045154
aF-0.4517380777751536
asg11
g1
(g12
g3
Ntp808
Rp809
(dp810
g16
(F-0.0
F0.0
F-1.0
tp811
sbsbag1
(g2
g3
Ntp812
Rp813
(dp814
g7
(lp815
F-0.0829683543581129
aF0.8108469728341058
aF0.1117842457389655
aF0.5668137637256798
aF0.21801419983088544
aF0.4800886965195015
aF0.5483820406931497
aF0.42494444038225354
aF0.3622278153577345
aF-0.23435738691664632
aF-0.28736674566609377
aF-0.1827156975463512
aF-0.849066245251109
aF-0.38387338237600066
asg9
(lp816
F-0.0007731151596634955
aF0.7340273816152728
aF0.6484077894354311
aF0.05169282241193762
aF0.5530069618517868
aF0.16690666278159705
aF0.458857726835762
aF0.9542887121342073
aF0.285265149883678
aF-0.32934346028250105
aF-0.10730721663380594
aF-0.08633437236164976
aF-0.8042314133713412
aF-0.8130741545280756
asg11
g1
(g12
g3
Ntp817
Rp818
(dp819
g16
g794
sbsbag1
(g2
g3
Ntp820
Rp821
(dp822
g7
(lp823
F-0.0829683543581129
aF0.8108469728341058
aF0.1117842457389655
aF0.5668137637256798
aF0.21801419983088544
aF0.4800886965195015
aF0.5483820406931497
aF0.42494444038225354
aF0.3622278153577345
aF-0.23435738691664632
aF-0.28736674566609377
aF-0.1827156975463512
aF-0.849066245251109
aF-0.38387338237600066
asg9
(lp824
F-0.0007731151596634955
aF0.7340273816152728
aF0.6484077894354311
aF0.05169282241193762
aF0.5530069618517868
aF0.16690666278159705
aF0.458857726835762
aF0.9542887121342073
aF0.285265149883678
aF-0.32934346028250105
aF-0.10730721663380594
aF-0.08633437236164976
aF-0.8042314133713412
aF-0.8130741545280756
asg11
g1
(g12
g3
Ntp825
Rp826
(dp827
g16
g794
sbsbag1
(g2
g3
Ntp828
Rp829
(dp830
g7
(lp831
F-1.0944625681119313
aF0.4933053743417275
aF0.1117842457389655
aF0.5668137637256798
aF0.564374856796126
aF0.4800886965195015
aF0.43689803119762466
aF0.42494444038225354
aF0.2278947808756006
aF-0.4640758845931896
aF-0.28736674566609377
aF-0.1827156975463512
aF-0.849066245251109
aF-0.38387338237600066
asg9
(lp832
F-0.0007731151596634955
aF-0.11876503070553002
aF-0.15590600456795578
aF-0.07361835401639194
aF0.5530069618517868
aF0.7523234597110053
aF0.42439414681251547
aF2.132765325853474
aF0.285265149883678
aF-0.32934346028250105
aF-0.06578904929742894
aF-0.08633437236164976
aF-0.5369588328045154
aF-0.4517380777751536
asg11
g1
(g12
g3
Ntp833
Rp834
(dp835
g16
g811
sbsbag1
(g2
g3
Ntp836
Rp837
(dp838
g7
(lp839
F-0.0829683543581129
aF1.517207934458379
aF0.48253408862719105
aF0.7018955853146499
aF0.21801419983088544
aF0.4800886965195015
aF0.5483820406931497
aF0.42494444038225354
aF0.3622278153577345
aF-0.8867362280590577
aF-0.4003692695992397
aF-0.1827156975463512
aF-0.849066245251109
aF-0.38387338237600066
asg9
(lp840
F-0.0007731151596634955
aF0.9721427791112398
aF0.6484077894354311
aF0.05169282241193762
aF0.5530069618517868
aF0.16690666278159705
aF0.458857726835762
aF0.9542887121342073
aF0.285265149883678
aF-0.32934346028250105
aF-0.10730721663380594
aF-0.08633437236164976
aF-0.8042314133713412
aF-0.8130741545280756
asg11
g1
(g12
g3
Ntp841
Rp842
(dp843
g16
(F-0.0
F0.0
F-1.0
tp844
sbsbag1
(g2
g3
Ntp845
Rp846
(dp847
g7
(lp848
F0.8663081211203209
aF2.0072917771469827
aF0.2100273181551724
aF0.5867134212206007
aF0.025749256957680156
aF-0.007777463550225849
aF0.36120697107240085
aF0.2916610980990567
aF0.22062120589491252
aF-0.23139601084501138
aF-0.21516810281210158
aF-0.18271569754635122
aF-0.7036594013183708
aF-0.3261848040314423
asg9
(lp849
F-0.0007731151596634955
aF0.567109285314203
aF0.07811294427307133
aF-0.3609536790367188
aF0.18013352980807457
aF0.18384596910579917
aF0.39371967269630276
aF0.9627617679623349
aF0.285265149883678
aF-0.33851964168154114
aF-0.08126026795163625
aF-0.08633437236164976
aF-0.7073596446374333
aF-0.8881639879892615
asg11
g1
(g12
g3
Ntp850
Rp851
(dp852
g16
(F-0.0
F0.0
F-1.0
tp853
sbsbag1
(g2
g3
Ntp854
Rp855
(dp856
g7
(lp857
F-0.12099198748700377
aF0.43830943123637955
aF0.6594395052492454
aF0.5610819119532146
aF0.8581489576615035
aF0.10456263024265644
aF0.42481135633225503
aF1.1257275699914204
aF0.3316204291632155
aF-0.2524110582495566
aF-0.6266595127088799
aF-0.18271569754635122
aF-1.3339703203989592
aF-0.5692049947902412
asg9
(lp858
F-0.0007731151596634956
aF0.51114685897935
aF0.9378451587471379
aF0.7507683875821126
aF0.19804755993412668
aF1.756966076707917
aF-0.49604958992104137
aF2.21607158369076
aF0.285265149883678
aF-0.34183812639363276
aF-0.4739066052944422
aF-0.5005584478663325
aF-1.4695904792033732
aF-1.267408189805528
asg11
g1
(g12
g3
Ntp859
Rp860
(dp861
g16
(F-0.0
F0.0
F-1.0
tp862
sbsbag1
(g2
g3
Ntp863
Rp864
(dp865
g7
(lp866
F-1.3462009385909126
aF0.3962576521896654
aF-0.08827420204142128
aF0.8222941022465303
aF0.11650504183871316
aF0.3451522565550898
aF0.4782837697982917
aF0.42494444038225354
aF1.090421602459893
aF-0.5024647227205843
aF-0.2757094168155472
aF-0.1827156975463512
aF-0.7511753993279299
aF-0.38387338237600066
asg9
(lp867
F-0.0007731151596634956
aF0.2710335882314625
aF-0.24331201951466103
aF-0.06563155121533613
aF2.0571521253799037
aF-0.07182530725696479
aF0.4752574285523021
aF1.6502023209956618
aF0.285265149883678
aF-0.32934346028250105
aF-0.12716382604953463
aF-0.08633437236164976
aF-0.7161742173854471
aF-0.5840811036120794
asg11
g1
(g12
g3
Ntp868
Rp869
(dp870
g16
(F-0.0
F0.0
F-1.0
tp871
sbsbag1
(g2
g3
Ntp872
Rp873
(dp874
g7
(lp875
F-0.0829683543581129
aF0.8108469728341058
aF-0.7327982815306946
aF0.5668137637256798
aF0.5810672681187521
aF0.4800886965195015
aF-0.2974803403605467
aF0.42494444038225354
aF0.3622278153577345
aF-0.4384477309740754
aF-0.28736674566609377
aF-0.5331383518030746
aF-0.849066245251109
aF-0.38387338237600066
asg9
(lp876
F-0.0007731151596634955
aF0.7340273816152728
aF0.6484077894354311
aF-0.12121212207894147
aF0.5530069618517868
aF-0.47481484656387507
aF0.458857726835762
aF0.9792536413620797
aF0.285265149883678
aF-0.32934346028250105
aF-0.8246572910591201
aF-0.08633437236164976
aF-0.8042314133713412
aF-0.8130741545280756
asg11
g1
(g12
g3
Ntp877
Rp878
(dp879
g16
(F-0.0
F0.0
F-1.0
tp880
sbsbag1
(g2
g3
Ntp881
Rp882
(dp883
g7
(lp884
F-1.9713030474308462
aF0.6464945018108701
aF0.39264429792940253
aF0.11278884762977248
aF0.28553247875788645
aF0.6295100531068757
aF-0.5439728757762605
aF0.2853068085737507
aF0.233016656901715
aF-0.25258785785825466
aF-0.2078960401653121
aF-0.6823545230371342
aF-0.7289168698353615
aF-1.1898207940330205
asg9
(lp885
F-0.0007731151596634955
aF0.3622496084862591
aF-0.42185076878568906
aF-0.6270167903008343
aF0.5530069618517868
aF0.8302782191741945
aF0.3411706757647399
aF1.8622755553500545
aF0.285265149883678
aF-0.33401426180996696
aF-0.3951688229186395
aF0.5086288883346091
aF-0.859997477989135
aF-1.2197741756592382
asg11
g1
(g12
g3
Ntp886
Rp887
(dp888
g16
(F-0.0
F0.0
F-1.0
tp889
sbsbag1
(g2
g3
Ntp890
Rp891
(dp892
g7
(lp893
F2.4196980843103546
aF-0.15272993430822773
aF0.03816603757033177
aF0.5112554414376594
aF-0.5536067960215567
aF0.8266815608177347
aF0.25475367114244607
aF0.2738231141983709
aF0.9681385339310848
aF-0.4310591051739143
aF-0.25217610590855466
aF-0.33591981644131375
aF-1.1426786543346423
aF0.4938312214551773
asg9
(lp894
F-0.0007731151596634955
aF0.16074629939652918
aF0.04978413826935413
aF-0.753652864180727
aF1.468113522742379
aF0.6655789529106049
aF0.6594797296793545
aF0.5359286950033428
aF-0.45039656470728207
aF-0.5352064388332414
aF-0.060468330187592616
aF-0.048511726062976226
aF0.36898820140024813
aF-1.0116554905274808
asg11
g1
(g12
g3
Ntp895
Rp896
(dp897
g16
(F-0.0
F0.0
F-1.0
tp898
sbsbag1
(g2
g3
Ntp899
Rp900
(dp901
g7
(lp902
F-0.7934294000103486
aF0.622399223536505
aF0.33467203515251426
aF0.6005008392800493
aF0.5609766094049381
aF0.880833750356197
aF0.12177356114595833
aF0.5626091873339355
aF-3.159836798047963
aF-0.3396986384792147
aF-0.23543418504375382
aF-0.1333819613364451
aF-0.7326454618565836
aF-0.5966552510936838
asg9
(lp903
F-0.0007731151596634955
aF-0.252749582253769
aF-0.5206550419140124
aF-0.33595995785529176
aF0.16254616305524594
aF0.2663224327530659
aF0.5639869030755122
aF1.156324473418751
aF0.2647999526004644
aF-0.3230220964167063
aF-0.7461051460558135
aF-0.020035310129147416
aF-0.932791747527373
aF-0.23140515406909157
asg11
g1
(g12
g3
Ntp904
Rp905
(dp906
g16
(F-0.0
F0.0
F-1.0
tp907
sbsbag1
(g2
g3
Ntp908
Rp909
(dp910
g7
(lp911
F-0.0829683543581129
aF0.8108469728341058
aF0.1117842457389655
aF0.5668137637256798
aF0.21801419983088544
aF0.4800886965195015
aF0.5483820406931497
aF0.42494444038225354
aF0.3622278153577345
aF-0.23435738691664632
aF-0.28736674566609377
aF-0.1827156975463512
aF-0.849066245251109
aF-0.38387338237600066
asg9
(lp912
F-0.0007731151596634955
aF0.7340273816152728
aF0.6484077894354311
aF0.05169282241193762
aF0.5530069618517868
aF0.16690666278159705
aF0.458857726835762
aF0.9542887121342073
aF0.285265149883678
aF-0.32934346028250105
aF-0.10730721663380594
aF-0.08633437236164976
aF-0.8042314133713412
aF-0.8130741545280756
asg11
g1
(g12
g3
Ntp913
Rp914
(dp915
g16
(F-0.0
F0.0
F-1.0
tp916
sbsbag1
(g2
g3
Ntp917
Rp918
(dp919
g7
(lp920
F-0.0829683543581129
aF0.8108469728341058
aF0.1117842457389655
aF0.5668137637256798
aF0.21801419983088544
aF0.4800886965195015
aF0.5483820406931497
aF0.42494444038225354
aF0.3622278153577345
aF-0.23435738691664632
aF-0.28736674566609377
aF-0.1827156975463512
aF-0.849066245251109
aF-0.38387338237600066
asg9
(lp921
F-0.0007731151596634955
aF0.7340273816152728
aF0.6484077894354311
aF0.05169282241193762
aF0.5530069618517868
aF0.16690666278159705
aF0.458857726835762
aF0.9542887121342073
aF0.285265149883678
aF-0.32934346028250105
aF-0.10730721663380594
aF-0.08633437236164976
aF-0.8042314133713412
aF-0.8130741545280756
asg11
g1
(g12
g3
Ntp922
Rp923
(dp924
g16
g916
sbsbag1
(g2
g3
Ntp925
Rp926
(dp927
g7
(lp928
F-1.0944625681119313
aF0.4933053743417275
aF0.1117842457389655
aF0.5668137637256798
aF0.564374856796126
aF0.4800886965195015
aF0.43689803119762466
aF0.42494444038225354
aF0.2278947808756006
aF-0.4640758845931896
aF-0.28736674566609377
aF-0.1827156975463512
aF-0.849066245251109
aF-0.38387338237600066
asg9
(lp929
F-0.0007731151596634955
aF-0.11876503070553002
aF-0.15590600456795578
aF-0.07361835401639194
aF0.5530069618517868
aF0.7523234597110053
aF0.42439414681251547
aF2.132765325853474
aF0.285265149883678
aF-0.32934346028250105
aF-0.06578904929742894
aF-0.08633437236164976
aF-0.5369588328045154
aF-0.4517380777751536
asg11
g1
(g12
g3
Ntp930
Rp931
(dp932
g16
(F-0.0
F0.0
F-1.0
tp933
sbsbag1
(g2
g3
Ntp934
Rp935
(dp936
g7
(lp937
F-0.0829683543581129
aF0.8108469728341059
aF0.1117842457389655
aF0.5668137637256798
aF0.21801419983088544
aF0.4800886965195015
aF0.5483820406931497
aF0.42494444038225354
aF0.3622278153577345
aF-0.23435738691664632
aF-0.28736674566609377
aF-0.1827156975463512
aF-0.849066245251109
aF-0.38387338237600066
asg9
(lp938
F-0.0007731151596634955
aF0.7340273816152728
aF0.6484077894354311
aF0.051692822411937615
aF0.5530069618517868
aF0.16690666278159705
aF0.458857726835762
aF0.9542887121342072
aF0.285265149883678
aF-0.32934346028250105
aF-0.10730721663380594
aF-0.08633437236164976
aF-0.8042314133713412
aF-0.8130741545280756
asg11
g1
(g12
g3
Ntp939
Rp940
(dp941
g16
(F-0.0
F0.0
F-1.0
tp942
sbsbag1
(g2
g3
Ntp943
Rp944
(dp945
g7
(lp946
F-0.0829683543581129
aF0.8108469728341059
aF-0.32989584365271823
aF0.18014150997091327
aF0.34065661155411603
aF0.4538501946794085
aF0.5483820406931497
aF1.084293744548388
aF0.3622278153577345
aF-0.23435738691664632
aF-1.2841853365993048
aF-0.1827156975463512
aF-0.849066245251109
aF-0.6502605468328626
asg9
(lp947
F-0.0007731151596634955
aF0.6887585562859526
aF0.6484077894354311
aF0.051692822411937615
aF0.5530069618517868
aF0.468082393277521
aF0.458857726835762
aF0.9542887121342072
aF0.285265149883678
aF-0.37137121874629025
aF-0.10730721663380594
aF-0.12377533412240849
aF-0.13644422847145699
aF-0.8130741545280756
asg11
g1
(g12
g3
Ntp948
Rp949
(dp950
g16
(F-0.0
F0.0
F-1.0
tp951
sbsbag1
(g2
g3
Ntp952
Rp953
(dp954
g7
(lp955
F-1.4662124470583116
aF0.9105729289851948
aF-0.5536274494259668
aF0.5668137637256798
aF0.3274723042463298
aF0.4800886965195015
aF0.7897543546690114
aF0.3318412480157799
aF-0.16790829438728383
aF0.4677528307540473
aF-0.28736674566609377
aF-0.1827156975463512
aF-0.849066245251109
aF-0.38387338237600066
asg9
(lp956
F-0.0007731151596634955
aF-0.3567725990249113
aF0.2467699655474705
aF-0.07444352939737009
aF1.097564118641619
aF-0.047700624472105435
aF0.7555306370360004
aF0.8809507830492775
aF0.285265149883678
aF-0.32934346028250105
aF-1.1011561087787702
aF0.2787499491615734
aF-0.8884718488530894
aF-0.9666826645766657
asg11
g1
(g12
g3
Ntp957
Rp958
(dp959
g16
(F-0.0
F0.0
F-1.0
tp960
sbsbag1
(g2
g3
Ntp961
Rp962
(dp963
g7
(lp964
F-0.7156454046487307
aF0.3320242270793932
aF0.1117842457389655
aF0.5668137637256798
aF0.3001017473656018
aF1.1983726944980138
aF0.9377648046275029
aF0.24798614548600123
aF0.44524647408469076
aF-0.3148621009572768
aF-0.09128128479326739
aF-0.1842498402568017
aF0.46238257538423255
aF-0.4077545023133895
asg9
(lp965
F-0.006568188092168228
aF0.5452739511413665
aF0.03391274955923046
aF0.7626928575542775
aF0.4882826954370619
aF0.8987362856924523
aF0.04384386276864627
aF1.4069584219604587
aF0.31944645538072775
aF-0.13922630582380074
aF-0.35825864298549753
aF-0.22662152845673073
aF-0.329220507526744
aF0.5298941136200477
asg11
g1
(g12
g3
Ntp966
Rp967
(dp968
g16
(F0.0
F0.0
F-1.0
tp969
sbsbag1
(g2
g3
Ntp970
Rp971
(dp972
g7
(lp973
F0.5664020692314491
aF-0.17297086469492856
aF0.1117842457389655
aF0.5668137637256798
aF0.03954110160992409
aF0.8309574618507294
aF0.6685778643276121
aF1.3796116764239879
aF0.4543443844636823
aF-0.25728247906252194
aF-0.28018435571835826
aF-0.18748264179465818
aF-0.32342112875491186
aF-0.12179290930225395
asg9
(lp974
F-0.0182024787223202
aF0.780553670745263
aF0.936279915987164
aF0.17572657334827402
aF0.8016439104666152
aF0.8024432089619039
aF1.6067190289543003
aF1.7109262507114589
aF0.3275782992386204
aF-0.3246645781834973
aF1.3342022855984734
aF-0.21712500581141397
aF-0.39918885170399654
aF-0.2800081643615349
asg11
g1
(g12
g3
Ntp975
Rp976
(dp977
g16
(F-0.0
F0.0
F-1.0
tp978
sbsbag1
(g2
g3
Ntp979
Rp980
(dp981
g7
(lp982
F-1.270912244885559
aF1.5718730992789234
aF-0.6738050967237098
aF0.306537153558484
aF0.34879883324321964
aF1.4974441996169443
aF0.38938206498899064
aF0.4912515099130471
aF0.21225989215999458
aF-0.15388432770188923
aF-0.251471650819293
aF0.43519673699545847
aF-0.6387486045085033
aF-0.15999008586657995
asg9
(lp983
F-0.0007731151596634955
aF-0.3436463234059615
aF0.10924635701569116
aF-0.9446916713131592
aF0.5620616729480988
aF0.5839703159631893
aF0.30188054434414946
aF1.1982907288933962
aF0.2895193963102086
aF-0.19944221435120957
aF0.030485694021593398
aF-0.001496256083147747
aF-0.5607342788263793
aF-0.44410500055121677
asg11
g1
(g12
g3
Ntp984
Rp985
(dp986
g16
(F-0.0
F0.0
F-1.0
tp987
sbsbag1
(g2
g3
Ntp988
Rp989
(dp990
g7
(lp991
F-0.0829683543581129
aF0.8108469728341058
aF0.1117842457389655
aF0.5668137637256798
aF0.21801419983088544
aF0.4800886965195015
aF0.5483820406931497
aF0.42494444038225354
aF0.3622278153577345
aF-0.23435738691664632
aF-0.28736674566609377
aF-0.1827156975463512
aF-0.849066245251109
aF-0.38387338237600066
asg9
(lp992
F-0.0007731151596634955
aF0.7340273816152728
aF0.6484077894354311
aF0.05169282241193762
aF0.5530069618517868
aF0.16690666278159705
aF0.458857726835762
aF0.9542887121342073
aF0.285265149883678
aF-0.32934346028250105
aF-0.10730721663380594
aF-0.08633437236164976
aF-0.8042314133713412
aF-0.8130741545280756
asg11
g1
(g12
g3
Ntp993
Rp994
(dp995
g16
(F-0.0
F0.0
F-1.0
tp996
sbsbag1
(g2
g3
Ntp997
Rp998
(dp999
g7
(lp1000
F-0.0829683543581129
aF0.8108469728341058
aF0.1117842457389655
aF0.5668137637256798
aF0.21801419983088544
aF0.4800886965195015
aF0.5483820406931497
aF0.42494444038225354
aF0.3622278153577345
aF-0.23435738691664632
aF-0.28736674566609377
aF-0.1827156975463512
aF-0.849066245251109
aF-0.38387338237600066
asg9
(lp1001
F-0.0007731151596634955
aF0.7340273816152728
aF0.6484077894354311
aF0.05169282241193762
aF0.5530069618517868
aF0.16690666278159705
aF0.458857726835762
aF0.9542887121342073
aF0.285265149883678
aF-0.32934346028250105
aF-0.10730721663380594
aF-0.08633437236164976
aF-0.8042314133713412
aF-0.8130741545280756
asg11
g1
(g12
g3
Ntp1002
Rp1003
(dp1004
g16
g996
sbsbag1
(g2
g3
Ntp1005
Rp1006
(dp1007
g7
(lp1008
F-1.0944625681119313
aF0.4933053743417275
aF0.1117842457389655
aF0.5668137637256798
aF0.564374856796126
aF0.4800886965195015
aF0.43689803119762466
aF0.42494444038225354
aF0.2278947808756006
aF-0.4640758845931896
aF-0.28736674566609377
aF-0.1827156975463512
aF-0.849066245251109
aF-0.38387338237600066
asg9
(lp1009
F-0.0007731151596634955
aF-0.11876503070553002
aF-0.15590600456795578
aF-0.07361835401639194
aF0.5530069618517868
aF0.7523234597110053
aF0.42439414681251547
aF2.132765325853474
aF0.285265149883678
aF-0.32934346028250105
aF-0.06578904929742894
aF-0.08633437236164976
aF-0.5369588328045154
aF-0.4517380777751536
asg11
g1
(g12
g3
Ntp1010
Rp1011
(dp1012
g16
(F-0.0
F0.0
F-1.0
tp1013
sbsbag1
(g2
g3
Ntp1014
Rp1015
(dp1016
g7
(lp1017
F-0.008834883693443277
aF0.5982099878091098
aF0.1117842457389655
aF0.5668137637256798
aF0.3456299963460566
aF0.4800886965195015
aF0.5352150987001794
aF0.42494444038225354
aF0.28423520144140413
aF-0.12496104341767922
aF-0.28736674566609377
aF-0.1827156975463512
aF-0.8490662452511091
aF-0.38387338237600066
asg9
(lp1018
F-0.0007731151596634955
aF0.9920198366002719
aF0.2759604695591499
aF-0.024100125090391906
aF0.5530069618517868
aF0.3778815966692064
aF0.4152413775423823
aF0.833558181835478
aF0.285265149883678
aF-0.32934346028250105
aF-0.052879433287687086
aF-0.08633437236164976
aF-0.4338093370489992
aF-0.9263251178273418
asg11
g1
(g12
g3
Ntp1019
Rp1020
(dp1021
g16
(F-0.0
F0.0
F-1.0
tp1022
sbsbag1
(g2
g3
Ntp1023
Rp1024
(dp1025
g7
(lp1026
F0.45899119376089925
aF0.16848618806610588
aF0.4247512754502105
aF0.5668137637256798
aF0.34299238700485013
aF0.4800886965195015
aF0.2745374987880194
aF-0.5160084301012834
aF-0.3529138164924497
aF-1.7206495381411795
aF0.1836654032995798
aF0.6108324466569085
aF0.2862091759356341
aF-0.30312313254887424
asg9
(lp1027
F0.007559921458432652
aF1.344911646926023
aF0.2439766545743383
aF0.1133503023985997
aF0.5406551473079175
aF-0.032913306584208435
aF1.2998240516144208
aF2.306174495078281
aF0.22720935617652432
aF-0.7263080874328163
aF0.6176395393091179
aF-0.059063648344477845
aF-0.7228044137001883
aF-0.41309537964447113
asg11
g1
(g12
g3
Ntp1028
Rp1029
(dp1030
g16
(F-0.0
F0.0
F-1.0
tp1031
sbsbag1
(g2
g3
Ntp1032
Rp1033
(dp1034
g7
(lp1035
F-0.8550543069064225
aF0.4933053743417275
aF0.028687022525653666
aF0.4209491081650424
aF0.564374856796126
aF0.021666530766550673
aF0.4772882629967271
aF0.42494444038225354
aF-0.05647572378575455
aF-0.4832813128146661
aF0.050081839170925624
aF0.2891766813749919
aF-0.30259837556587343
aF-0.43359965169399844
asg9
(lp1036
F-0.0007731151596634955
aF-0.10665921212119561
aF-0.15590600456795578
aF-0.32300528565791836
aF0.5530069618517868
aF0.45873053371483274
aF0.23938153346897686
aF2.1224897756993437
aF1.1025655236003722
aF-0.32934346028250105
aF-0.5018226267621131
aF-0.42261739051429803
aF-0.5369588328045154
aF-0.4517380777751536
asg11
g1
(g12
g3
Ntp1037
Rp1038
(dp1039
g16
(F-0.0
F0.0
F-1.0
tp1040
sbsbag1
(g2
g3
Ntp1041
Rp1042
(dp1043
g7
(lp1044
F0.5634767609914301
aF1.1218866625908346
aF0.09622485821665104
aF0.07628194937446223
aF-0.19609349035936746
aF-0.20323361161079317
aF0.39006947013630827
aF0.42494444038225354
aF1.2528885001618215
aF0.18177742848285017
aF-0.0917652089853715
aF-0.28696081844741633
aF-0.5425862842367282
aF-0.14900638660817775
asg9
(lp1045
F-0.0007731151596634955
aF1.1894112355423987
aF1.382999450939576
aF-0.16603837125521248
aF-0.08863151589032019
aF-0.12943144171476972
aF-0.01911820365011152
aF1.831576688974879
aF0.6566639246504904
aF-0.07449980777570026
aF-0.05017869006963126
aF-0.8485228002433429
aF-1.5237066225185
aF-0.4671486371527203
asg11
g1
(g12
g3
Ntp1046
Rp1047
(dp1048
g16
(F-0.0
F0.0
F-1.0
tp1049
sbsbag1
(g2
g3
Ntp1050
Rp1051
(dp1052
g7
(lp1053
F-0.03884416519879165
aF0.855759401981214
aF0.8084420456250428
aF0.5076275526287943
aF0.0425761961389349
aF-1.3682423674992432
aF1.0284993824658002
aF0.16142567256339935
aF0.5569816615128037
aF-0.01564592271169396
aF-0.2713045256935523
aF-0.029913707500942847
aF-0.888985939480292
aF-0.43655577971288007
asg9
(lp1054
F-0.0007731151596634955
aF-0.8526011441607846
aF1.7701015470465191
aF-0.19918595440914483
aF0.3848511320409626
aF0.4242301265656197
aF-0.024130141509879716
aF4.3008269538997865
aF0.4149362086998719
aF-0.04969193925481828
aF0.0480223505666018
aF0.6104906931259098
aF-0.8946343164630859
aF-0.6095691858699659
asg11
g1
(g12
g3
Ntp1055
Rp1056
(dp1057
g16
(F-0.0
F0.0
F-1.0
tp1058
sbsbag1
(g2
g3
Ntp1059
Rp1060
(dp1061
g7
(lp1062
F-0.7018675283737773
aF0.9307158509539667
aF-0.17632800274000648
aF1.0468049316550854
aF-0.7486673235961148
aF0.5086095582245447
aF1.3027959626125942
aF1.3327966199890424
aF1.040941094517659
aF-1.4830403571914261
aF-0.8153055943821158
aF-0.14627693131008176
aF-0.3859180446971284
aF-0.2469845122071951
asg9
(lp1063
F-0.0007731151596634955
aF1.1615596311077736
aF-2.2160696689490953
aF-0.09155416847131163
aF-0.19254569941218977
aF0.11601965014100503
aF1.1126492213975785
aF-0.004166767627644452
aF0.2690095843474908
aF-0.2981549997453825
aF-0.006954516000030157
aF-0.2575835315201204
aF-1.163081406939274
aF-0.6052412926958921
asg11
g1
(g12
g3
Ntp1064
Rp1065
(dp1066
g16
(F0.0
F0.0
F-1.0
tp1067
sbsbag1
(g2
g3
Ntp1068
Rp1069
(dp1070
g7
(lp1071
F-4.235488145594171
aF0.218345110297379
aF-0.22098899172265699
aF0.5566983636071849
aF0.5895730450490755
aF1.0885833893472732
aF0.8755720648591951
aF0.41912787558198866
aF0.2801349529850863
aF-0.25519538420170595
aF-0.0822581199523422
aF-0.6039997868224491
aF-0.7653324178881834
aF-1.7709877322846572
asg9
(lp1072
F-0.0007731151596634955
aF0.9461374091939115
aF0.5799580526441268
aF-0.12582330253705637
aF-0.22771538772771474
aF0.06995246087499989
aF0.3057566398245259
aF2.8627775777728335
aF0.28356825805697294
aF-0.3696857676593175
aF-0.08904195777197173
aF-0.09702598336062716
aF-0.674719692530538
aF-0.9984252069255265
asg11
g1
(g12
g3
Ntp1073
Rp1074
(dp1075
g16
(F-0.0
F0.0
F-1.0
tp1076
sbsbag1
(g2
g3
Ntp1077
Rp1078
(dp1079
g7
(lp1080
F1.5469117317266625
aF0.9091414887546148
aF0.4360581690647225
aF0.4494840388314144
aF0.10242300367618799
aF-0.07972692409688428
aF0.10659748189213064
aF0.4244603277324464
aF0.49508556318915414
aF-0.21953600529346107
aF-0.08052363502929952
aF-0.6756454005581498
aF-0.6636206348593969
aF-0.7308896025097398
asg9
(lp1081
F-0.0007731151596634955
aF0.8787805260958206
aF-0.3103684468080689
aF0.14753474927860186
aF1.5939565075242093
aF0.08567907354935453
aF0.44814691598383133
aF-0.6225940976523436
aF0.2840390236220973
aF-0.335795252264477
aF-0.09239144360907427
aF-0.2531587249571619
aF-0.817668744271759
aF0.7197663914725672
asg11
g1
(g12
g3
Ntp1082
Rp1083
(dp1084
g16
(F-0.0
F0.0
F-1.0
tp1085
sbsbag1
(g2
g3
Ntp1086
Rp1087
(dp1088
g7
(lp1089
F-0.0829683543581129
aF0.8108469728341058
aF0.1117842457389655
aF0.5668137637256798
aF0.21801419983088544
aF0.4800886965195015
aF0.5483820406931497
aF0.42494444038225354
aF0.3622278153577345
aF-0.23435738691664632
aF-0.28736674566609377
aF-0.1827156975463512
aF-0.849066245251109
aF-0.38387338237600066
asg9
(lp1090
F-0.0007731151596634955
aF0.7340273816152728
aF0.6484077894354311
aF0.05169282241193762
aF0.5530069618517868
aF0.16690666278159705
aF0.458857726835762
aF0.9542887121342073
aF0.285265149883678
aF-0.32934346028250105
aF-0.10730721663380594
aF-0.08633437236164976
aF-0.8042314133713412
aF-0.8130741545280756
asg11
g1
(g12
g3
Ntp1091
Rp1092
(dp1093
g16
(F-0.0
F0.0
F-1.0
tp1094
sbsbag1
(g2
g3
Ntp1095
Rp1096
(dp1097
g7
(lp1098
F-0.0829683543581129
aF0.8108469728341058
aF0.1117842457389655
aF0.5668137637256798
aF0.21801419983088544
aF0.4800886965195015
aF0.5483820406931497
aF0.42494444038225354
aF0.3622278153577345
aF-0.23435738691664632
aF-0.28736674566609377
aF-0.1827156975463512
aF-0.849066245251109
aF-0.38387338237600066
asg9
(lp1099
F-0.0007731151596634955
aF0.7340273816152728
aF0.6484077894354311
aF0.05169282241193762
aF0.5530069618517868
aF0.16690666278159705
aF0.458857726835762
aF0.9542887121342073
aF0.285265149883678
aF-0.32934346028250105
aF-0.10730721663380594
aF-0.08633437236164976
aF-0.8042314133713412
aF-0.8130741545280756
asg11
g1
(g12
g3
Ntp1100
Rp1101
(dp1102
g16
g1094
sbsbag1
(g2
g3
Ntp1103
Rp1104
(dp1105
g7
(lp1106
F-1.0944625681119313
aF0.4933053743417275
aF0.1117842457389655
aF0.5668137637256798
aF0.564374856796126
aF0.4800886965195015
aF0.43689803119762466
aF0.42494444038225354
aF0.2278947808756006
aF-0.4640758845931896
aF-0.28736674566609377
aF-0.1827156975463512
aF-0.849066245251109
aF-0.38387338237600066
asg9
(lp1107
F-0.0007731151596634955
aF-0.11876503070553002
aF-0.15590600456795578
aF-0.07361835401639194
aF0.5530069618517868
aF0.7523234597110053
aF0.42439414681251547
aF2.132765325853474
aF0.285265149883678
aF-0.32934346028250105
aF-0.06578904929742894
aF-0.08633437236164976
aF-0.5369588328045154
aF-0.4517380777751536
asg11
g1
(g12
g3
Ntp1108
Rp1109
(dp1110
g16
(F-0.0
F0.0
F-1.0
tp1111
sbsbag1
(g2
g3
Ntp1112
Rp1113
(dp1114
g7
(lp1115
F-0.0829683543581129
aF0.8108469728341058
aF0.1117842457389655
aF0.5668137637256798
aF0.21801419983088544
aF0.4800886965195015
aF0.5483820406931497
aF0.42494444038225354
aF0.3622278153577345
aF-0.23435738691664632
aF-0.28736674566609377
aF-0.1827156975463512
aF-0.849066245251109
aF-0.38387338237600066
asg9
(lp1116
F-0.0007731151596634955
aF0.7340273816152728
aF0.6484077894354311
aF0.05169282241193762
aF0.5530069618517868
aF0.16690666278159705
aF0.458857726835762
aF0.9542887121342073
aF0.285265149883678
aF-0.32934346028250105
aF-0.10730721663380594
aF-0.08633437236164976
aF-0.8042314133713412
aF-0.8130741545280756
asg11
g1
(g12
g3
Ntp1117
Rp1118
(dp1119
g16
g1094
sbsbag1
(g2
g3
Ntp1120
Rp1121
(dp1122
g7
(lp1123
F-0.0829683543581129
aF0.8108469728341058
aF0.1117842457389655
aF0.5668137637256798
aF0.21801419983088544
aF0.4800886965195015
aF0.5483820406931497
aF0.42494444038225354
aF0.3622278153577345
aF-0.23435738691664632
aF-0.28736674566609377
aF-0.1827156975463512
aF-0.849066245251109
aF-0.38387338237600066
asg9
(lp1124
F-0.0007731151596634955
aF0.7340273816152728
aF0.6484077894354311
aF0.05169282241193762
aF0.5530069618517868
aF0.16690666278159705
aF0.458857726835762
aF0.9542887121342073
aF0.285265149883678
aF-0.32934346028250105
aF-0.10730721663380594
aF-0.08633437236164976
aF-0.8042314133713412
aF-0.8130741545280756
asg11
g1
(g12
g3
Ntp1125
Rp1126
(dp1127
g16
g1094
sbsbag1
(g2
g3
Ntp1128
Rp1129
(dp1130
g7
(lp1131
F-0.0796555759422186
aF0.8771849436040875
aF0.22916292718602985
aF0.7436589078648412
aF0.2714151518092847
aF0.8346617691497065
aF1.0735119831052518
aF0.6035991253464982
aF-2.5067434196895264
aF-1.0834122272266573
aF-1.4267621225383738
aF0.12101808357619434
aF-1.7935115719503674
aF0.04773714728759676
asg9
(lp1132
F-0.0007731151596634955
aF1.0653182103888812
aF0.9101176288931196
aF-0.028137045776763275
aF0.6750976221956152
aF-0.04411246220461465
aF0.47397825967748475
aF1.0551165512763103
aF0.12246504124276553
aF-0.3418211721303075
aF0.03603888952249425
aF-0.08633437236164976
aF-0.9916172262928659
aF-0.7381447738581302
asg11
g1
(g12
g3
Ntp1133
Rp1134
(dp1135
g16
(F-0.0
F0.0
F-1.0
tp1136
sbsbag1
(g2
g3
Ntp1137
Rp1138
(dp1139
g7
(lp1140
F-0.2146390199859735
aF0.9028057088557316
aF0.1117842457389655
aF0.5650449795460312
aF0.44338274284394097
aF-0.40468534294516856
aF0.49692874876090565
aF0.31333577178209104
aF0.21459605770812065
aF-0.3734928170258142
aF-0.3469621158251224
aF-0.01062553186320907
aF-1.295081463759218
aF-0.38387338237600066
asg9
(lp1141
F-0.0007731151596634955
aF0.374858777790104
aF0.8696180016845675
aF0.6471405753704202
aF0.5530069618517868
aF0.3690339155076185
aF0.39035443292694383
aF1.029113515880549
aF0.285265149883678
aF-0.3322191439407304
aF-0.03510926489883946
aF-0.08633437236164976
aF-0.26570430121933164
aF-0.7258132542184239
asg11
g1
(g12
g3
Ntp1142
Rp1143
(dp1144
g16
(F-0.0
F0.0
F-1.0
tp1145
sbsbag1
(g2
g3
Ntp1146
Rp1147
(dp1148
g7
(lp1149
F0.5577660294145533
aF0.8762446400886135
aF0.7298240056839779
aF0.7230679137615008
aF0.4278612855993422
aF0.47999631044016267
aF0.16792967275684084
aF0.9572920788705351
aF0.35370386481380106
aF0.5023771783163457
aF-0.28820098151836604
aF0.010428036730403142
aF-1.5295618655471046
aF-1.6256036584535585
asg9
(lp1150
F0.013029194670305866
aF-0.29054064636123594
aF0.5406163084707373
aF0.09559646114721013
aF0.5417221817599362
aF0.7512413471921462
aF0.4962742500093419
aF0.23494014957622644
aF0.80054638677261
aF-0.40409878635037455
aF-0.07420414324628508
aF-0.8454366046307671
aF-0.3561001406042954
aF-0.7573268468709701
asg11
g1
(g12
g3
Ntp1151
Rp1152
(dp1153
g16
(F-0.0
F0.0
F-1.0
tp1154
sbsbag1
(g2
g3
Ntp1155
Rp1156
(dp1157
g7
(lp1158
F-0.004550422486129035
aF0.812728873347946
aF0.12371764424322589
aF0.04903728593524111
aF0.2818964199032503
aF0.48555811415414685
aF0.8199939187683397
aF0.554015201802945
aF0.36643208894695
aF-0.06431001669394816
aF0.03759316559854681
aF-0.2365723918348949
aF-0.9015116755386208
aF0.351329077365705
asg9
(lp1159
F-0.0007731151596634955
aF0.37640340661986466
aF0.8372490318008788
aF0.1078955042507036
aF-0.18489061070296808
aF-1.8770106403286995
aF0.38859100115475076
aF2.093105467654408
aF0.1816107330209386
aF-0.05622500051908126
aF0.08595482628029663
aF0.43117580794060084
aF-0.7919292138787943
aF-0.5350367317605178
asg11
g1
(g12
g3
Ntp1160
Rp1161
(dp1162
g16
(F-0.0
F0.0
F-1.0
tp1163
sbsbag1
(g2
g3
Ntp1164
Rp1165
(dp1166
g7
(lp1167
F-0.0771934610376527
aF1.7378684326485796
aF0.11163706458437009
aF0.589477906187971
aF1.3503416459247233
aF0.4897520905549672
aF-0.7365274463735073
aF1.729531735453002
aF0.3783560495798536
aF0.3478724961658544
aF0.027943226099368806
aF0.035554215464396216
aF-1.2402313056352314
aF-0.652343489430359
asg9
(lp1168
F-0.0007731151596634955
aF0.8368973511756181
aF0.680803277959648
aF0.07707937470257831
aF1.0397329444477448
aF0.4826677834890343
aF0.5784260896680998
aF2.510179582572191
aF0.026718933980584225
aF0.5084556603675074
aF-0.34462956172747716
aF0.26652587850671317
aF-0.7911270918617881
aF-0.7871727925891373
asg11
g1
(g12
g3
Ntp1169
Rp1170
(dp1171
g16
(F-0.0
F0.0
F-1.0
tp1172
sbsbag1
(g2
g3
Ntp1173
Rp1174
(dp1175
g7
(lp1176
F-0.0829683543581129
aF0.8108469728341058
aF0.1117842457389655
aF0.5668137637256798
aF0.21801419983088544
aF0.4800886965195015
aF0.5483820406931497
aF0.42494444038225354
aF0.3622278153577345
aF-0.23435738691664632
aF-0.28736674566609377
aF-0.1827156975463512
aF-0.849066245251109
aF-0.38387338237600066
asg9
(lp1177
F-0.0007731151596634955
aF0.7340273816152728
aF0.6484077894354311
aF0.05169282241193762
aF0.5530069618517868
aF0.16690666278159705
aF0.458857726835762
aF0.9542887121342073
aF0.285265149883678
aF-0.32934346028250105
aF-0.10730721663380594
aF-0.08633437236164976
aF-0.8042314133713412
aF-0.8130741545280756
asg11
g1
(g12
g3
Ntp1178
Rp1179
(dp1180
g16
(F-0.0
F0.0
F-1.0
tp1181
sbsbag1
(g2
g3
Ntp1182
Rp1183
(dp1184
g7
(lp1185
F-0.0829683543581129
aF0.8108469728341058
aF0.1117842457389655
aF0.5668137637256798
aF0.21801419983088544
aF0.4800886965195015
aF0.5483820406931497
aF0.42494444038225354
aF0.3622278153577345
aF-0.23435738691664632
aF-0.28736674566609377
aF-0.1827156975463512
aF-0.849066245251109
aF-0.38387338237600066
asg9
(lp1186
F-0.0007731151596634955
aF0.7340273816152728
aF0.6484077894354311
aF0.05169282241193762
aF0.5530069618517868
aF0.16690666278159705
aF0.458857726835762
aF0.9542887121342073
aF0.285265149883678
aF-0.32934346028250105
aF-0.10730721663380594
aF-0.08633437236164976
aF-0.8042314133713412
aF-0.8130741545280756
asg11
g1
(g12
g3
Ntp1187
Rp1188
(dp1189
g16
g1181
sbsbag1
(g2
g3
Ntp1190
Rp1191
(dp1192
g7
(lp1193
F-1.0944625681119313
aF0.4933053743417275
aF0.1117842457389655
aF0.5668137637256798
aF0.564374856796126
aF0.4800886965195015
aF0.43689803119762466
aF0.42494444038225354
aF0.2278947808756006
aF-0.4640758845931896
aF-0.28736674566609377
aF-0.1827156975463512
aF-0.849066245251109
aF-0.38387338237600066
asg9
(lp1194
F-0.0007731151596634955
aF-0.11876503070553002
aF-0.15590600456795578
aF-0.07361835401639194
aF0.5530069618517868
aF0.7523234597110053
aF0.42439414681251547
aF2.132765325853474
aF0.285265149883678
aF-0.32934346028250105
aF-0.06578904929742894
aF-0.08633437236164976
aF-0.5369588328045154
aF-0.4517380777751536
asg11
g1
(g12
g3
Ntp1195
Rp1196
(dp1197
g16
(F-0.0
F0.0
F-1.0
tp1198
sbsbag1
(g2
g3
Ntp1199
Rp1200
(dp1201
g7
(lp1202
F0.29260916361991945
aF0.051630876836341155
aF0.11178424573896552
aF0.6369277334396314
aF0.5840465725413753
aF0.4800886965195015
aF0.44744583708380997
aF-0.5836920253827105
aF-0.16486617293705152
aF-0.23983489089972798
aF-0.28736674566609377
aF-0.7411027197602942
aF-0.8490662452511091
aF0.41908594400818944
asg9
(lp1203
F-0.0007731151596634955
aF0.2518813589921375
aF-0.20721577618507717
aF-0.04672544386510713
aF0.5530069618517868
aF-0.11018640058225501
aF0.9198111090471214
aF3.1754256873189965
aF0.285265149883678
aF-0.32934346028250105
aF-0.10658645321288186
aF-0.08633437236164976
aF-0.47733398549113903
aF-0.9804807867376377
asg11
g1
(g12
g3
Ntp1204
Rp1205
(dp1206
g16
(F-0.0
F0.0
F-1.0
tp1207
sbsbag1
(g2
g3
Ntp1208
Rp1209
(dp1210
g7
(lp1211
F-0.8193317267668608
aF0.8349070656431167
aF0.11178424573896552
aF0.5668137637256798
aF0.19834248408563618
aF0.4800886965195015
aF0.5378342348069644
aF0.42494444038225354
aF0.42227862683148537
aF-0.458598380610108
aF-0.28736674566609377
aF-0.1827156975463512
aF-0.8490662452511091
aF-0.38387338237600066
asg9
(lp1212
F-0.0007731151596634955
aF0.3633809919176053
aF0.8395187750729902
aF0.024799912260652812
aF0.5530069618517868
aF1.0294165230748575
aF0.4121092284169953
aF0.5302583329958495
aF0.285265149883678
aF-0.32934346028250105
aF-0.06650981271835302
aF-0.08633437236164976
aF-0.8638562606847174
aF-0.3179101272599204
asg11
g1
(g12
g3
Ntp1213
Rp1214
(dp1215
g16
(F0.0
F0.0
F-1.0
tp1216
sbsbag1
(g2
g3
Ntp1217
Rp1218
(dp1219
g7
(lp1220
F-1.4714361119699453
aF2.007686799165408
aF0.5706213199768899
aF0.5285533011818137
aF0.020310917549159837
aF-0.03391195329586322
aF0.034896803735796345
aF0.42494444038225354
aF0.27777412872596285
aF-0.34062826985110306
aF-0.32281682633123765
aF-0.1827156975463512
aF-1.4796089613711745
aF-0.06882649952501818
asg9
(lp1221
F-0.0007731151596634955
aF0.29222594062340734
aF0.2343847853159085
aF-0.020996951474263673
aF0.5530069618517868
aF0.5432797463614195
aF0.4350535425234072
aF1.5800389553751042
aF0.285265149883678
aF-0.1889778109746295
aF-0.6943483450443242
aF0.024884966696756702
aF-1.3077099692488925
aF-0.11305368976109798
asg11
g1
(g12
g3
Ntp1222
Rp1223
(dp1224
g16
(F-0.0
F0.0
F-1.0
tp1225
sbsbag1
(g2
g3
Ntp1226
Rp1227
(dp1228
g7
(lp1229
F0.13010423019208894
aF0.7144904922814097
aF0.1117842457389655
aF0.5724697152325713
aF0.1578745721878983
aF0.4286557468825511
aF-0.1700726205773176
aF0.42494444038225354
aF0.10504832261121078
aF-0.5296281751708799
aF-0.28736674566609377
aF-0.1827156975463512
aF-0.6617643713763
aF-0.3982032368216449
asg9
(lp1230
F-0.0007731151596634955
aF0.6124205634189203
aF0.6815401741108844
aF0.5565091045566639
aF0.5530069618517868
aF0.07308029173707226
aF0.35972806312271227
aF0.6728269272136904
aF-0.7361498558993005
aF0.146607912308725
aF-0.1199163080633448
aF-0.08633437236164976
aF-1.1022692767336428
aF-0.7401048987439812
asg11
g1
(g12
g3
Ntp1231
Rp1232
(dp1233
g16
(F-0.0
F0.0
F-1.0
tp1234
sbsbag1
(g2
g3
Ntp1235
Rp1236
(dp1237
g7
(lp1238
F1.1716834739630857
aF1.0523900526040864
aF-0.01661814183049104
aF-0.5982488593169076
aF0.8832102829202408
aF0.34730772825087286
aF1.0107687753240386
aF0.5450652958515854
aF0.06844562303906686
aF-0.19334115958843065
aF-0.7186467648925993
aF-0.15362559587253902
aF0.19638029064601425
aF-0.41967715361851793
asg9
(lp1239
F-0.0007731151596634955
aF-0.04592064178183103
aF1.854076047855484
aF-0.04569809066217842
aF0.4819541911758169
aF0.6876600223172182
aF0.0020502267357003223
aF0.6274368686108248
aF0.8131918945634201
aF-1.624096732501259
aF-0.1315576616475308
aF0.17154343826388335
aF-0.741873774418851
aF-0.9666051423722576
asg11
g1
(g12
g3
Ntp1240
Rp1241
(dp1242
g16
(F-0.0
F0.0
F-1.0
tp1243
sbsbag1
(g2
g3
Ntp1244
Rp1245
(dp1246
g7
(lp1247
F-0.0829683543581129
aF0.8108469728341058
aF0.1117842457389655
aF0.5668137637256798
aF0.21801419983088544
aF0.4800886965195015
aF0.5483820406931497
aF0.42494444038225354
aF0.3622278153577345
aF-0.23435738691664632
aF-0.28736674566609377
aF-0.1827156975463512
aF-0.849066245251109
aF-0.38387338237600066
asg9
(lp1248
F-0.0007731151596634955
aF0.7340273816152728
aF0.6484077894354311
aF0.05169282241193762
aF0.5530069618517868
aF0.16690666278159705
aF0.458857726835762
aF0.9542887121342073
aF0.285265149883678
aF-0.32934346028250105
aF-0.10730721663380594
aF-0.08633437236164976
aF-0.8042314133713412
aF-0.8130741545280756
asg11
g1
(g12
g3
Ntp1249
Rp1250
(dp1251
g16
(F-0.0
F0.0
F-1.0
tp1252
sbsbag1
(g2
g3
Ntp1253
Rp1254
(dp1255
g7
(lp1256
F-0.0829683543581129
aF0.8108469728341058
aF0.1117842457389655
aF0.5668137637256798
aF0.21801419983088544
aF0.4800886965195015
aF0.5483820406931497
aF0.42494444038225354
aF0.3622278153577345
aF-0.23435738691664632
aF-0.28736674566609377
aF-0.1827156975463512
aF-0.849066245251109
aF-0.38387338237600066
asg9
(lp1257
F-0.0007731151596634955
aF0.7340273816152728
aF0.6484077894354311
aF0.05169282241193762
aF0.5530069618517868
aF0.16690666278159705
aF0.458857726835762
aF0.9542887121342073
aF0.285265149883678
aF-0.32934346028250105
aF-0.10730721663380594
aF-0.08633437236164976
aF-0.8042314133713412
aF-0.8130741545280756
asg11
g1
(g12
g3
Ntp1258
Rp1259
(dp1260
g16
g1252
sbsbag1
(g2
g3
Ntp1261
Rp1262
(dp1263
g7
(lp1264
F-1.0944625681119313
aF0.4933053743417275
aF0.1117842457389655
aF0.5668137637256798
aF0.564374856796126
aF0.4800886965195015
aF0.43689803119762466
aF0.42494444038225354
aF0.2278947808756006
aF-0.4640758845931896
aF-0.28736674566609377
aF-0.1827156975463512
aF-0.849066245251109
aF-0.38387338237600066
asg9
(lp1265
F-0.0007731151596634955
aF-0.11876503070553002
aF-0.15590600456795578
aF-0.07361835401639194
aF0.5530069618517868
aF0.7523234597110053
aF0.42439414681251547
aF2.132765325853474
aF0.285265149883678
aF-0.32934346028250105
aF-0.06578904929742894
aF-0.08633437236164976
aF-0.5369588328045154
aF-0.4517380777751536
asg11
g1
(g12
g3
Ntp1266
Rp1267
(dp1268
g16
(F-0.0
F0.0
F-1.0
tp1269
sbsbag1
(g2
g3
Ntp1270
Rp1271
(dp1272
g7
(lp1273
F-0.0829683543581129
aF0.8108469728341058
aF0.1117842457389655
aF0.5668137637256798
aF0.21801419983088544
aF0.4800886965195015
aF0.5483820406931497
aF0.42494444038225354
aF0.3622278153577345
aF-0.23435738691664632
aF-0.28736674566609377
aF-0.1827156975463512
aF-0.849066245251109
aF-0.38387338237600066
asg9
(lp1274
F-0.0007731151596634955
aF0.7340273816152728
aF0.6484077894354311
aF0.05169282241193762
aF0.5530069618517868
aF0.16690666278159705
aF0.458857726835762
aF0.9542887121342073
aF0.285265149883678
aF-0.32934346028250105
aF-0.10730721663380594
aF-0.08633437236164976
aF-0.8042314133713412
aF-0.8130741545280756
asg11
g1
(g12
g3
Ntp1275
Rp1276
(dp1277
g16
g1252
sbsbag1
(g2
g3
Ntp1278
Rp1279
(dp1280
g7
(lp1281
F-1.0944625681119313
aF0.4933053743417275
aF0.1117842457389655
aF0.5668137637256798
aF0.564374856796126
aF0.4800886965195015
aF0.43689803119762466
aF0.42494444038225354
aF0.2278947808756006
aF-0.4640758845931896
aF-0.28736674566609377
aF-0.1827156975463512
aF-0.849066245251109
aF-0.38387338237600066
asg9
(lp1282
F-0.0007731151596634955
aF-0.11876503070553002
aF-0.15590600456795578
aF-0.07361835401639194
aF0.5530069618517868
aF0.7523234597110053
aF0.42439414681251547
aF2.132765325853474
aF0.285265149883678
aF-0.32934346028250105
aF-0.06578904929742894
aF-0.08633437236164976
aF-0.5369588328045154
aF-0.4517380777751536
asg11
g1
(g12
g3
Ntp1283
Rp1284
(dp1285
g16
g1269
sbsbag1
(g2
g3
Ntp1286
Rp1287
(dp1288
g7
(lp1289
F-0.0829683543581129
aF0.8108469728341058
aF0.11178424573896552
aF0.5668137637256798
aF0.21801419983088544
aF0.4800886965195015
aF0.5483820406931497
aF0.42494444038225354
aF0.3622278153577345
aF-0.2343573869166463
aF-0.28736674566609377
aF-0.1827156975463512
aF-0.8490662452511091
aF-0.38387338237600066
asg9
(lp1290
F-0.0007731151596634955
aF0.7340273816152728
aF0.6484077894354311
aF0.05169282241193762
aF0.5530069618517868
aF0.16690666278159705
aF0.45885772683576204
aF0.9542887121342072
aF0.285265149883678
aF-0.32934346028250105
aF-0.10730721663380594
aF-0.08633437236164976
aF-0.8042314133713411
aF-0.8130741545280756
asg11
g1
(g12
g3
Ntp1291
Rp1292
(dp1293
g16
(F-0.0
F0.0
F-1.0
tp1294
sbsbag1
(g2
g3
Ntp1295
Rp1296
(dp1297
g7
(lp1298
F-1.0944625681119313
aF0.2289299854602786
aF0.1117842457389655
aF0.8758692404239645
aF0.07617779463736724
aF0.4800886965195015
aF1.1079804335319523
aF0.42494444038225354
aF0.2278947808756006
aF-0.3328966892040209
aF-0.28736674566609377
aF-0.1827156975463512
aF-0.849066245251109
aF-0.38387338237600066
asg9
(lp1299
F-0.0007731151596634955
aF-0.11876503070553002
aF-0.15590600456795578
aF-0.07361835401639194
aF0.5530069618517868
aF0.7523234597110053
aF0.42439414681251547
aF1.8899031305085094
aF0.285265149883678
aF-0.5667921987005149
aF-0.06578904929742894
aF-0.08633437236164976
aF-0.5369588328045154
aF0.010598239551458943
asg11
g1
(g12
g3
Ntp1300
Rp1301
(dp1302
g16
(F-0.0
F0.0
F-1.0
tp1303
sbsbag1
(g2
g3
Ntp1304
Rp1305
(dp1306
g7
(lp1307
F-0.0829683543581129
aF0.8108469728341058
aF0.1117842457389655
aF0.5668137637256798
aF0.21801419983088544
aF0.4800886965195015
aF0.5483820406931497
aF0.42494444038225354
aF0.3622278153577345
aF-0.23435738691664632
aF-0.28736674566609377
aF-0.1827156975463512
aF-0.849066245251109
aF-0.38387338237600066
asg9
(lp1308
F-0.0007731151596634955
aF0.7340273816152729
aF0.6484077894354311
aF0.05169282241193762
aF0.5530069618517868
aF0.16690666278159705
aF0.458857726835762
aF0.9542887121342074
aF0.285265149883678
aF-0.32934346028250105
aF-0.10730721663380592
aF-0.08633437236164976
aF-0.8042314133713413
aF-0.8130741545280756
asg11
g1
(g12
g3
Ntp1309
Rp1310
(dp1311
g16
(F-0.0
F0.0
F-1.0
tp1312
sbsbag1
(g2
g3
Ntp1313
Rp1314
(dp1315
g7
(lp1316
F-0.4081079769725918
aF0.8108469728341058
aF0.32495919105965043
aF0.9864478614839227
aF0.38944306987035004
aF0.40449697079340763
aF-0.7480314121988914
aF-0.5222999299848099
aF-0.21919112947781644
aF-0.27680500199114194
aF-0.18808511356296298
aF-0.07682292688986346
aF-1.3403594231564773
aF-0.22034260193816946
asg9
(lp1317
F-0.0007731151596634955
aF0.7665890538488251
aF0.6008172669545674
aF0.4993994639705186
aF0.4788076803171588
aF0.41660495923293783
aF0.48655558212738204
aF0.9542887121342074
aF0.559779063131979
aF-0.509906084556397
aF-1.6316623169340092
aF-0.10621369520343829
aF-1.3299859670104905
aF-1.8557003913886034
asg11
g1
(g12
g3
Ntp1318
Rp1319
(dp1320
g16
(F-0.0
F0.0
F-1.0
tp1321
sbsbag1
(g2
g3
Ntp1322
Rp1323
(dp1324
g7
(lp1325
F-1.0944625681119313
aF0.4933053743417275
aF0.1117842457389655
aF0.5668137637256798
aF0.564374856796126
aF0.4800886965195015
aF0.4368980311976247
aF0.42494444038225354
aF0.2278947808756006
aF-0.4640758845931896
aF-0.28736674566609377
aF-0.1827156975463512
aF-0.849066245251109
aF-0.38387338237600066
asg9
(lp1326
F-0.0007731151596634954
aF-0.11876503070553002
aF-0.15590600456795578
aF-0.07361835401639194
aF0.5530069618517868
aF0.7523234597110053
aF0.42439414681251547
aF2.132765325853474
aF0.285265149883678
aF-0.32934346028250105
aF-0.06578904929742894
aF-0.08633437236164976
aF-0.5369588328045154
aF-0.4517380777751536
asg11
g1
(g12
g3
Ntp1327
Rp1328
(dp1329
g16
(F-0.0
F0.0
F-1.0
tp1330
sbsbag1
(g2
g3
Ntp1331
Rp1332
(dp1333
g7
(lp1334
F-3.7419196720185064
aF0.6863766923172854
aF0.28323224842407047
aF0.5788991784532467
aF0.7884450151662711
aF0.7141499327133912
aF0.3917436484394384
aF0.8819695547048393
aF0.8077149264336763
aF-0.7462053445364105
aF-0.020305958838254964
aF-0.7408693079533692
aF-1.0687425234913648
aF-0.3897030072755674
asg9
(lp1335
F-0.005515599668026535
aF-0.10940340470465869
aF-0.3504557490160662
aF-0.09806454848178081
aF0.4881703556250968
aF1.3147371473494938
aF2.158995588278021
aF1.4960433247499887
aF1.2731608144707107
aF0.2152892350512443
aF0.7710185811541315
aF-0.03465755100865826
aF-1.2233440946753389
aF-0.3327888609911025
asg11
g1
(g12
g3
Ntp1336
Rp1337
(dp1338
g16
(F-0.0
F0.0
F-1.0
tp1339
sbsbag1
(g2
g3
Ntp1340
Rp1341
(dp1342
g7
(lp1343
F-0.7370883195949887
aF0.9094459751279286
aF0.32510207100723054
aF0.6115603239065711
aF2.4410146045176475
aF0.9251837280035411
aF1.5056774417201981
aF0.5279204907718841
aF1.0092956501645507
aF-0.6231879399739567
aF0.16816242931183345
aF-0.20607611585881264
aF-1.022934015592433
aF-0.4167010896059966
asg9
(lp1344
F-0.0018299356344185077
aF-0.13591705521703512
aF0.06280172207464955
aF-0.08563393501147548
aF0.6597491405417745
aF-0.2533866968954821
aF0.9642277784604917
aF1.32915372553086
aF0.11564948580813876
aF-0.11092734814956726
aF-0.24170183629831504
aF-0.06152537356410229
aF-1.5505281121129224
aF-0.9736453084306004
asg11
g1
(g12
g3
Ntp1345
Rp1346
(dp1347
g16
(F-0.0
F0.0
F-1.0
tp1348
sbsbag1
(g2
g3
Ntp1349
Rp1350
(dp1351
g7
(lp1352
F-0.0829683543581129
aF0.8108469728341058
aF0.1117842457389655
aF0.5668137637256798
aF0.21801419983088544
aF0.4800886965195015
aF0.5483820406931497
aF0.42494444038225354
aF0.3622278153577345
aF-0.23435738691664632
aF-0.28736674566609377
aF-0.1827156975463512
aF-0.849066245251109
aF-0.38387338237600066
asg9
(lp1353
F-0.0007731151596634955
aF0.7340273816152728
aF0.6484077894354311
aF0.05169282241193762
aF0.5530069618517868
aF0.16690666278159705
aF0.458857726835762
aF0.9542887121342073
aF0.285265149883678
aF-0.32934346028250105
aF-0.10730721663380594
aF-0.08633437236164976
aF-0.8042314133713412
aF-0.8130741545280756
asg11
g1
(g12
g3
Ntp1354
Rp1355
(dp1356
g16
(F-0.0
F0.0
F-1.0
tp1357
sbsbag1
(g2
g3
Ntp1358
Rp1359
(dp1360
g7
(lp1361
F-0.0829683543581129
aF0.8108469728341058
aF0.1117842457389655
aF0.5668137637256798
aF0.21801419983088544
aF0.4800886965195015
aF0.5483820406931497
aF0.42494444038225354
aF0.3622278153577345
aF-0.23435738691664632
aF-0.28736674566609377
aF-0.1827156975463512
aF-0.849066245251109
aF-0.38387338237600066
asg9
(lp1362
F-0.0007731151596634955
aF0.7340273816152728
aF0.6484077894354311
aF0.05169282241193762
aF0.5530069618517868
aF0.16690666278159705
aF0.458857726835762
aF0.9542887121342073
aF0.285265149883678
aF-0.32934346028250105
aF-0.10730721663380594
aF-0.08633437236164976
aF-0.8042314133713412
aF-0.8130741545280756
asg11
g1
(g12
g3
Ntp1363
Rp1364
(dp1365
g16
g1357
sbsbag1
(g2
g3
Ntp1366
Rp1367
(dp1368
g7
(lp1369
F-1.0944625681119313
aF0.4933053743417275
aF0.1117842457389655
aF0.5668137637256798
aF0.564374856796126
aF0.4800886965195015
aF0.43689803119762466
aF0.42494444038225354
aF0.2278947808756006
aF-0.4640758845931896
aF-0.28736674566609377
aF-0.1827156975463512
aF-0.849066245251109
aF-0.38387338237600066
asg9
(lp1370
F-0.0007731151596634955
aF-0.11876503070553002
aF-0.15590600456795578
aF-0.07361835401639194
aF0.5530069618517868
aF0.7523234597110053
aF0.42439414681251547
aF2.132765325853474
aF0.285265149883678
aF-0.32934346028250105
aF-0.06578904929742894
aF-0.08633437236164976
aF-0.5369588328045154
aF-0.4517380777751536
asg11
g1
(g12
g3
Ntp1371
Rp1372
(dp1373
g16
(F-0.0
F0.0
F-1.0
tp1374
sbsbag1
(g2
g3
Ntp1375
Rp1376
(dp1377
g7
(lp1378
F-0.0829683543581129
aF0.8108469728341058
aF0.1117842457389655
aF0.5668137637256798
aF0.21801419983088544
aF0.4800886965195015
aF0.5483820406931497
aF0.42494444038225354
aF0.3622278153577345
aF-0.23435738691664632
aF-0.28736674566609377
aF-0.1827156975463512
aF-0.849066245251109
aF-0.38387338237600066
asg9
(lp1379
F-0.0007731151596634955
aF0.7340273816152728
aF0.6484077894354311
aF0.05169282241193762
aF0.5530069618517868
aF0.16690666278159705
aF0.458857726835762
aF0.9542887121342073
aF0.285265149883678
aF-0.32934346028250105
aF-0.10730721663380594
aF-0.08633437236164976
aF-0.8042314133713412
aF-0.8130741545280756
asg11
g1
(g12
g3
Ntp1380
Rp1381
(dp1382
g16
g1357
sbsbag1
(g2
g3
Ntp1383
Rp1384
(dp1385
g7
(lp1386
F-0.5316037476246259
aF0.9853155910183857
aF0.1117842457389655
aF1.0633803610683707
aF0.35747514610638875
aF0.4800886965195015
aF0.43689803119762466
aF0.42494444038225354
aF0.2278947808756006
aF-0.925988172700499
aF-0.28736674566609377
aF-0.1827156975463512
aF-0.849066245251109
aF-0.38387338237600066
asg9
(lp1387
F-0.0007731151596634955
aF-0.11876503070553002
aF-0.15590600456795578
aF-0.4842112289580156
aF0.5530069618517868
aF0.3869588831218608
aF0.42439414681251547
aF2.132765325853474
aF-0.6343771841896032
aF-0.32934346028250105
aF-0.06578904929742894
aF1.405335299142091
aF-0.5369588328045154
aF-0.4517380777751536
asg11
g1
(g12
g3
Ntp1388
Rp1389
(dp1390
g16
(F-0.0
F0.0
F-1.0
tp1391
sbsbag1
(g2
g3
Ntp1392
Rp1393
(dp1394
g7
(lp1395
F-0.0829683543581129
aF0.8108469728341058
aF0.1117842457389655
aF0.5668137637256798
aF0.21801419983088544
aF0.4800886965195015
aF0.5483820406931497
aF0.42494444038225354
aF0.3622278153577345
aF-0.23435738691664632
aF-0.28736674566609377
aF-0.1827156975463512
aF-0.849066245251109
aF-0.38387338237600066
asg9
(lp1396
F-0.0007731151596634955
aF0.7340273816152728
aF0.6484077894354311
aF0.05169282241193762
aF0.5530069618517868
aF0.16690666278159705
aF0.458857726835762
aF0.9542887121342073
aF0.285265149883678
aF-0.32934346028250105
aF-0.10730721663380594
aF-0.08633437236164976
aF-0.8042314133713412
aF-0.8130741545280756
asg11
g1
(g12
g3
Ntp1397
Rp1398
(dp1399
g16
g1357
sbsbag1
(g2
g3
Ntp1400
Rp1401
(dp1402
g7
(lp1403
F-0.8028636164845897
aF0.6155546392882103
aF0.11178424573896552
aF0.5668137637256798
aF0.14290768193933245
aF-0.37453574356845676
aF0.39847514850152643
aF0.42494444038225354
aF0.07600337949572247
aF-0.16557952448351662
aF-0.28736674566609377
aF-2.6248959331889203
aF-0.45805854556431846
aF-0.37609129969498345
asg9
(lp1404
F-0.0007731151596634955
aF0.7555211622476633
aF-0.36818159828354635
aF-0.06578955706673932
aF0.5816706496855584
aF0.5447031680105019
aF-0.1362539258740846
aF0.6085227793453376
aF0.217280533131941
aF-0.32934346028250105
aF-0.124061676941853
aF-0.08633437236164976
aF-0.8991509081357854
aF-0.86133101088836
asg11
g1
(g12
g3
Ntp1405
Rp1406
(dp1407
g16
(F0.0
F0.0
F-1.0
tp1408
sbsbag1
(g2
g3
Ntp1409
Rp1410
(dp1411
g7
(lp1412
F-0.37456730598545457
aF-0.23376859244951317
aF0.11178424573896552
aF0.5668137637256798
aF-0.0462452974979551
aF0.3305216216879595
aF0.5868049233892478
aF0.42494444038225354
aF0.1946974455385306
aF-0.6389500784044317
aF-0.28736674566609377
aF0.48522619603137707
aF-0.7971589687099537
aF-0.3239080900934463
asg9
(lp1413
F-0.0007731151596634955
aF-0.14025881133792045
aF0.8729333492465036
aF0.04386402546228501
aF0.5591110044190084
aF0.8188558859712516
aF0.6055636762363757
aF2.4785312586423434
aF0.532768838122485
aF-0.32934346028250105
aF-0.04903458898938188
aF-0.08633437236164976
aF-0.49843642433748486
aF-0.40348122141486936
asg11
g1
(g12
g3
Ntp1414
Rp1415
(dp1416
g16
(F-0.0
F0.0
F-1.0
tp1417
sbsbag1
(g2
g3
Ntp1418
Rp1419
(dp1420
g7
(lp1421
F0.8382047953677302
aF0.36624274094965364
aF0.465871100081793
aF0.6373883016787476
aF0.41835990334645956
aF0.38811881603957277
aF0.17378733484226772
aF0.49033472979085463
aF0.37193369184286384
aF-0.0723277167314138
aF0.17869846699127379
aF-0.7662555214943099
aF-0.7623552018392248
aF-0.27683579788543256
asg9
(lp1422
F-0.0007731151596634955
aF0.5884961651458498
aF0.645238638141787
aF-0.22430728314499765
aF0.5530069618517868
aF0.16690666278159705
aF-0.3328770996355226
aF0.8482602642925491
aF-0.8047659646178439
aF-1.2332677671670573
aF-0.23579983903858406
aF-0.7187514983825953
aF-0.644203461293218
aF-0.8871727377524017
asg11
g1
(g12
g3
Ntp1423
Rp1424
(dp1425
g16
(F-0.0
F0.0
F-1.0
tp1426
sbsbag1
(g2
g3
Ntp1427
Rp1428
(dp1429
g7
(lp1430
F1.670021031698262
aF-0.00295792708923176
aF0.1627167988747369
aF0.3357745231650491
aF1.7776548265088454
aF0.49910071629268105
aF0.13031485984798996
aF0.22655047055504093
aF0.2946310626225436
aF-0.8730260265331955
aF0.14873397371107847
aF-0.5041326250297954
aF-0.8972549982998836
aF-0.524307629452326
asg9
(lp1431
F-0.0007731151596634955
aF0.2738725019929574
aF0.6714287652953501
aF-0.18199930711319423
aF1.042914589652522
aF-0.9678234635336967
aF0.5399297775265697
aF0.04261939665223613
aF0.5048492190113254
aF-0.5815627725176304
aF-0.1365651201318363
aF1.0331502610555399
aF-0.37102984873433065
aF-0.9349707778348726
asg11
g1
(g12
g3
Ntp1432
Rp1433
(dp1434
g16
(F-0.0
F0.0
F-1.0
tp1435
sbsbag1
(g2
g3
Ntp1436
Rp1437
(dp1438
g7
(lp1439
F-0.19876016700799953
aF0.31493286003813803
aF0.5520498172202627
aF0.5714244805837876
aF-0.11085819949759818
aF0.5341480455536574
aF0.6323407869511446
aF0.4351423015194065
aF0.29465876953719206
aF0.23514622040517216
aF0.07130310124177404
aF0.5845670828869998
aF-0.9184664274286767
aF0.07460732560959768
asg9
(lp1440
F-0.0007731151596634955
aF0.9870983470385937
aF0.3483457862060576
aF0.053486809203171934
aF1.2632684484769061
aF-0.2674644683495582
aF0.6771388022064484
aF1.1374636981713302
aF0.5555078991778482
aF-0.24746941930948788
aF-0.11323858532870609
aF-0.25271462536274253
aF-0.5525209920610981
aF-0.2143750282362985
asg11
g1
(g12
g3
Ntp1441
Rp1442
(dp1443
g16
(F-0.0
F0.0
F-1.0
tp1444
sbsbag1
(g2
g3
Ntp1445
Rp1446
(dp1447
g7
(lp1448
F-0.0829683543581129
aF0.8108469728341058
aF0.1117842457389655
aF0.5668137637256798
aF0.21801419983088544
aF0.4800886965195015
aF0.5483820406931497
aF0.42494444038225354
aF0.3622278153577345
aF-0.23435738691664632
aF-0.28736674566609377
aF-0.1827156975463512
aF-0.849066245251109
aF-0.38387338237600066
asg9
(lp1449
F-0.0007731151596634955
aF0.7340273816152728
aF0.6484077894354311
aF0.05169282241193762
aF0.5530069618517868
aF0.16690666278159705
aF0.458857726835762
aF0.9542887121342073
aF0.285265149883678
aF-0.32934346028250105
aF-0.10730721663380594
aF-0.08633437236164976
aF-0.8042314133713412
aF-0.8130741545280756
asg11
g1
(g12
g3
Ntp1450
Rp1451
(dp1452
g16
(F-0.0
F0.0
F-1.0
tp1453
sbsbag1
(g2
g3
Ntp1454
Rp1455
(dp1456
g7
(lp1457
F-0.0829683543581129
aF0.8108469728341058
aF0.1117842457389655
aF0.5668137637256798
aF0.21801419983088544
aF0.4800886965195015
aF0.5483820406931497
aF0.42494444038225354
aF0.3622278153577345
aF-0.23435738691664632
aF-0.28736674566609377
aF-0.1827156975463512
aF-0.849066245251109
aF-0.38387338237600066
asg9
(lp1458
F-0.0007731151596634955
aF0.7340273816152728
aF0.6484077894354311
aF0.05169282241193762
aF0.5530069618517868
aF0.16690666278159705
aF0.458857726835762
aF0.9542887121342073
aF0.285265149883678
aF-0.32934346028250105
aF-0.10730721663380594
aF-0.08633437236164976
aF-0.8042314133713412
aF-0.8130741545280756
asg11
g1
(g12
g3
Ntp1459
Rp1460
(dp1461
g16
g1453
sbsbag1
(g2
g3
Ntp1462
Rp1463
(dp1464
g7
(lp1465
F-1.0944625681119313
aF0.4933053743417275
aF0.1117842457389655
aF0.5668137637256798
aF0.564374856796126
aF0.4800886965195015
aF0.43689803119762466
aF0.42494444038225354
aF0.2278947808756006
aF-0.4640758845931896
aF-0.28736674566609377
aF-0.1827156975463512
aF-0.849066245251109
aF-0.38387338237600066
asg9
(lp1466
F-0.0007731151596634955
aF-0.11876503070553002
aF-0.15590600456795578
aF-0.07361835401639194
aF0.5530069618517868
aF0.7523234597110053
aF0.42439414681251547
aF2.132765325853474
aF0.285265149883678
aF-0.32934346028250105
aF-0.06578904929742894
aF-0.08633437236164976
aF-0.5369588328045154
aF-0.4517380777751536
asg11
g1
(g12
g3
Ntp1467
Rp1468
(dp1469
g16
(F-0.0
F0.0
F-1.0
tp1470
sbsbag1
(g2
g3
Ntp1471
Rp1472
(dp1473
g7
(lp1474
F-0.0829683543581129
aF0.8108469728341058
aF0.11178424573896549
aF0.5668137637256798
aF0.21801419983088546
aF-0.03338967906030105
aF0.5483820406931497
aF0.42494444038225354
aF0.14630806353899037
aF-1.0206551320018367
aF-0.28736674566609377
aF-0.1827156975463512
aF-0.6593553646420092
aF-0.38387338237600066
asg9
(lp1475
F-0.0007731151596634955
aF2.229518901682728
aF0.6484077894354311
aF0.05169282241193762
aF0.5530069618517868
aF0.10896066311337389
aF0.5182833932952932
aF0.9542887121342073
aF-0.29068558439844516
aF-1.4331001018471636
aF-0.10730721663380594
aF-0.08633437236164976
aF-0.8335084748379068
aF-0.8130741545280756
asg11
g1
(g12
g3
Ntp1476
Rp1477
(dp1478
g16
(F-0.0
F0.0
F-1.0
tp1479
sbsbag1
(g2
g3
Ntp1480
Rp1481
(dp1482
g7
(lp1483
F-1.5664486350366076
aF0.5907959852696418
aF0.1117842457389655
aF0.5668137637256798
aF0.537925407979834
aF0.4800886965195015
aF0.4016297126906875
aF0.42494444038225354
aF0.19961074467146833
aF-0.47935396479595854
aF-0.28736674566609377
aF-0.1827156975463512
aF-0.849066245251109
aF-0.38387338237600066
asg9
(lp1484
F-0.0007731151596634955
aF-0.2231148930927928
aF0.38999960076615886
aF-0.02809096760268604
aF0.5530069618517868
aF0.5765403142669587
aF0.47194323179167663
aF0.7519045414725432
aF0.285265149883678
aF-0.32934346028250105
aF-0.06269470434742243
aF-0.08633437236164976
aF-0.7234274310037696
aF-0.34870776478641274
asg11
g1
(g12
g3
Ntp1485
Rp1486
(dp1487
g16
(F-0.0
F0.0
F-1.0
tp1488
sbsbag1
(g2
g3
Ntp1489
Rp1490
(dp1491
g7
(lp1492
F-0.0829683543581129
aF0.8108469728341058
aF0.1117842457389655
aF0.5668137637256798
aF0.21801419983088544
aF0.4800886965195015
aF0.5483820406931497
aF0.42494444038225354
aF0.3622278153577345
aF-0.23435738691664632
aF-0.28736674566609377
aF-0.1827156975463512
aF-0.849066245251109
aF-0.38387338237600066
asg9
(lp1493
F-0.0007731151596634955
aF0.7340273816152728
aF0.6484077894354311
aF0.05169282241193762
aF0.5530069618517868
aF0.16690666278159705
aF0.458857726835762
aF0.9542887121342073
aF0.285265149883678
aF-0.32934346028250105
aF-0.10730721663380594
aF-0.08633437236164976
aF-0.8042314133713412
aF-0.8130741545280756
asg11
g1
(g12
g3
Ntp1494
Rp1495
(dp1496
g16
g1453
sbsbag1
(g2
g3
Ntp1497
Rp1498
(dp1499
g7
(lp1500
F-1.0944625681119313
aF0.4933053743417275
aF0.1117842457389655
aF0.5668137637256798
aF0.564374856796126
aF0.4800886965195015
aF0.43689803119762466
aF0.42494444038225354
aF0.2278947808756006
aF-0.4640758845931896
aF-0.28736674566609377
aF-0.1827156975463512
aF-0.849066245251109
aF-0.38387338237600066
asg9
(lp1501
F-0.0007731151596634955
aF-0.11876503070553002
aF-0.15590600456795578
aF-0.07361835401639194
aF0.5530069618517868
aF0.7523234597110053
aF0.42439414681251547
aF2.132765325853474
aF0.285265149883678
aF-0.32934346028250105
aF-0.06578904929742894
aF-0.08633437236164976
aF-0.5369588328045154
aF-0.4517380777751536
asg11
g1
(g12
g3
Ntp1502
Rp1503
(dp1504
g16
g1470
sbsbag1
(g2
g3
Ntp1505
Rp1506
(dp1507
g7
(lp1508
F-0.0829683543581129
aF0.8108469728341059
aF0.11178424573896549
aF0.5668137637256798
aF-0.47618305899093805
aF0.4800886965195015
aF0.5483820406931497
aF0.42494444038225354
aF0.3622278153577345
aF-0.23435738691664632
aF0.510023472258959
aF-0.1827156975463512
aF-0.6402883830885517
aF-0.38387338237600066
asg9
(lp1509
F-0.0007731151596634956
aF0.7340273816152728
aF0.6484077894354311
aF0.1167483021225027
aF0.5530069618517868
aF0.16690666278159705
aF1.2088527140602237
aF0.7839653643857316
aF0.285265149883678
aF-0.32934346028250105
aF-0.10730721663380594
aF-0.4734307751938644
aF-0.8042314133713412
aF-1.400105657433226
asg11
g1
(g12
g3
Ntp1510
Rp1511
(dp1512
g16
(F-0.0
F0.0
F-1.0
tp1513
sbsbag1
(g2
g3
Ntp1514
Rp1515
(dp1516
g7
(lp1517
F-1.1135522202983634
aF0.8474010642738634
aF0.08713927698742274
aF1.5514349254143363
aF0.35567656130977904
aF0.7800328355346111
aF0.05835005368341234
aF1.3109364926870348
aF0.6690824926626674
aF0.07583335799824886
aF-0.28736674566609377
aF-0.5005620740537191
aF-1.8250915469588138
aF-0.729695412275827
asg9
(lp1518
F-0.0007731151596634955
aF-0.9942535269494893
aF1.04934675122088
aF-0.5284175470298855
aF0.2793949757544204
aF0.17095464473306743
aF0.3053101544975349
aF1.1875492862130952
aF0.8087531300096433
aF0.26926504477476043
aF-0.060714778734790295
aF-1.1739397962396552
aF-1.3381434829775418
aF-1.622694161425929
asg11
g1
(g12
g3
Ntp1519
Rp1520
(dp1521
g16
(F-0.0
F0.0
F-1.0
tp1522
sbsbag1
(g2
g3
Ntp1523
Rp1524
(dp1525
g7
(lp1526
F-1.2628116110494085
aF0.549158262094614
aF-0.04865214830017164
aF0.6014135080105236
aF0.7791057034073136
aF0.2398788918605085
aF0.44517921220566414
aF1.0043728049323597
aF1.0169599643585086
aF-0.475508010817514
aF-0.3252397374075059
aF-1.7932436327445012
aF-0.2749084790552276
aF-0.3820930358783879
asg9
(lp1527
F-0.0007731151596634955
aF0.7685818007509299
aF-0.040689938852161864
aF-0.05725175293421864
aF0.5530069618517868
aF0.6558627258531362
aF0.16460306106272968
aF2.003134131186836
aF0.25130636712429466
aF-2.174352186584753
aF0.4233336750460871
aF-0.13320899973970088
aF-0.5467672330402061
aF-0.746981343089762
asg11
g1
(g12
g3
Ntp1528
Rp1529
(dp1530
g16
(F-0.0
F0.0
F-1.0
tp1531
sbsbag1
(g2
g3
Ntp1532
Rp1533
(dp1534
g7
(lp1535
F-0.09317170942449807
aF0.8140003097081453
aF0.287933742019142
aF0.6911982873816155
aF0.5585872587239856
aF-0.6895245683032756
aF-0.07591373763119758
aF-0.24117541595608383
aF1.6526274661989773
aF-0.07459481585708938
aF-0.37811399029989823
aF0.7668658774091864
aF-0.28250576306420516
aF-0.36331626051799737
asg9
(lp1536
F-0.0007731151596634955
aF0.3980779794313897
aF0.22753500136990612
aF-0.00649471146469463
aF0.6204745774834926
aF0.940698502668337
aF0.3458578308866554
aF1.8631281712452665
aF-0.1685607722931372
aF-0.30226965577177867
aF-0.01270156245383805
aF-0.21191155042782772
aF-0.031151254493580582
aF-0.31041333707514496
asg11
g1
(g12
g3
Ntp1537
Rp1538
(dp1539
g16
(F-0.0
F0.0
F-1.0
tp1540
sbsbag1
(g2
g3
Ntp1541
Rp1542
(dp1543
g7
(lp1544
F-0.0829683543581129
aF0.8108469728341058
aF0.1117842457389655
aF0.5668137637256798
aF0.21801419983088544
aF0.4800886965195015
aF0.5483820406931497
aF0.42494444038225354
aF0.3622278153577345
aF-0.23435738691664632
aF-0.28736674566609377
aF-0.1827156975463512
aF-0.849066245251109
aF-0.38387338237600066
asg9
(lp1545
F-0.0007731151596634955
aF0.7340273816152728
aF0.6484077894354311
aF0.05169282241193762
aF0.5530069618517868
aF0.16690666278159705
aF0.458857726835762
aF0.9542887121342073
aF0.285265149883678
aF-0.32934346028250105
aF-0.10730721663380594
aF-0.08633437236164976
aF-0.8042314133713412
aF-0.8130741545280756
asg11
g1
(g12
g3
Ntp1546
Rp1547
(dp1548
g16
(F-0.0
F0.0
F-1.0
tp1549
sbsbag1
(g2
g3
Ntp1550
Rp1551
(dp1552
g7
(lp1553
F-0.0829683543581129
aF0.8108469728341058
aF0.1117842457389655
aF0.5668137637256798
aF0.21801419983088544
aF0.4800886965195015
aF0.5483820406931497
aF0.42494444038225354
aF0.3622278153577345
aF-0.23435738691664632
aF-0.28736674566609377
aF-0.1827156975463512
aF-0.849066245251109
aF-0.38387338237600066
asg9
(lp1554
F-0.0007731151596634955
aF0.7340273816152728
aF0.6484077894354311
aF0.05169282241193762
aF0.5530069618517868
aF0.16690666278159705
aF0.458857726835762
aF0.9542887121342073
aF0.285265149883678
aF-0.32934346028250105
aF-0.10730721663380594
aF-0.08633437236164976
aF-0.8042314133713412
aF-0.8130741545280756
asg11
g1
(g12
g3
Ntp1555
Rp1556
(dp1557
g16
g1549
sbsbag1
(g2
g3
Ntp1558
Rp1559
(dp1560
g7
(lp1561
F-1.0944625681119313
aF0.4933053743417275
aF0.1117842457389655
aF0.5668137637256798
aF0.564374856796126
aF0.4800886965195015
aF0.43689803119762466
aF0.42494444038225354
aF0.2278947808756006
aF-0.4640758845931896
aF-0.28736674566609377
aF-0.1827156975463512
aF-0.849066245251109
aF-0.38387338237600066
asg9
(lp1562
F-0.0007731151596634955
aF-0.11876503070553002
aF-0.15590600456795578
aF-0.07361835401639194
aF0.5530069618517868
aF0.7523234597110053
aF0.42439414681251547
aF2.132765325853474
aF0.285265149883678
aF-0.32934346028250105
aF-0.06578904929742894
aF-0.08633437236164976
aF-0.5369588328045154
aF-0.4517380777751536
asg11
g1
(g12
g3
Ntp1563
Rp1564
(dp1565
g16
(F-0.0
F0.0
F-1.0
tp1566
sbsbag1
(g2
g3
Ntp1567
Rp1568
(dp1569
g7
(lp1570
F0.3977039061649516
aF0.8108469728341057
aF0.1117842457389655
aF-0.2802752314632643
aF0.21801419983088544
aF0.4800886965195014
aF0.5483820406931497
aF0.14142567005127332
aF0.3622278153577345
aF-0.23435738691664632
aF-0.4178112966277467
aF-0.457005050420125
aF-0.03654131970891494
aF-0.38387338237600066
asg9
(lp1571
F-0.0007731151596634955
aF0.0728239719058077
aF0.43733270036547756
aF0.05169282241193762
aF-0.5430458211489129
aF0.16690666278159705
aF0.45885772683576204
aF0.9542887121342074
aF1.0264568864548527
aF-0.32934346028250105
aF-0.10696019747275747
aF-0.08633437236164976
aF-0.8042314133713412
aF-0.8130741545280757
asg11
g1
(g12
g3
Ntp1572
Rp1573
(dp1574
g16
(F-0.0
F0.0
F-1.0
tp1575
sbsbag1
(g2
g3
Ntp1576
Rp1577
(dp1578
g7
(lp1579
F-0.0829683543581129
aF0.8108469728341057
aF0.1117842457389655
aF0.5668137637256798
aF0.21801419983088544
aF0.4800886965195014
aF0.5483820406931497
aF0.42494444038225354
aF0.3622278153577345
aF-0.23435738691664632
aF-0.28736674566609377
aF-0.1827156975463512
aF-0.849066245251109
aF-0.38387338237600066
asg9
(lp1580
F-0.0007731151596634955
aF0.7340273816152728
aF0.6484077894354311
aF0.05169282241193762
aF0.5530069618517868
aF0.16690666278159705
aF0.45885772683576204
aF0.9542887121342074
aF0.285265149883678
aF-0.32934346028250105
aF-0.10730721663380594
aF-0.08633437236164976
aF-0.8042314133713412
aF-0.8130741545280757
asg11
g1
(g12
g3
Ntp1581
Rp1582
(dp1583
g16
(F-0.0
F0.0
F-1.0
tp1584
sbsbag1
(g2
g3
Ntp1585
Rp1586
(dp1587
g7
(lp1588
F-1.0944625681119313
aF0.4933053743417275
aF0.1117842457389655
aF0.5668137637256798
aF0.564374856796126
aF0.4800886965195015
aF0.43689803119762466
aF0.42494444038225354
aF0.2278947808756006
aF-0.4640758845931896
aF-0.28736674566609377
aF-0.1827156975463512
aF-0.849066245251109
aF-0.38387338237600066
asg9
(lp1589
F-0.0007731151596634955
aF-0.11876503070553002
aF-0.15590600456795578
aF-0.07361835401639194
aF0.5530069618517868
aF0.7523234597110053
aF0.42439414681251547
aF2.132765325853474
aF0.285265149883678
aF-0.32934346028250105
aF-0.06578904929742894
aF-0.08633437236164976
aF-0.5369588328045154
aF-0.4517380777751536
asg11
g1
(g12
g3
Ntp1590
Rp1591
(dp1592
g16
g1566
sbsbag1
(g2
g3
Ntp1593
Rp1594
(dp1595
g7
(lp1596
F-0.0829683543581129
aF0.993519846328666
aF0.1117842457389655
aF1.3728176348410246
aF0.21801419983088544
aF0.48008869651950153
aF1.4391783567567957
aF0.42494444038225354
aF0.9560471516620239
aF-0.23435738691664632
aF-0.28736674566609377
aF-0.1827156975463512
aF0.6677363559390442
aF-0.38387338237600066
asg9
(lp1597
F-0.0007731151596634955
aF0.7340273816152728
aF-0.5376165822704809
aF0.05169282241193762
aF-0.24285361867919197
aF0.16690666278159705
aF0.4109716786854961
aF1.0446860648852831
aF0.285265149883678
aF-0.32934346028250105
aF0.6534227913928338
aF-0.08633437236164976
aF-0.8042314133713413
aF-0.7213081570964656
asg11
g1
(g12
g3
Ntp1598
Rp1599
(dp1600
g16
(F-0.0
F0.0
F-1.0
tp1601
sbsbag1
(g2
g3
Ntp1602
Rp1603
(dp1604
g7
(lp1605
F-1.2374171271277197
aF0.4318964309130754
aF0.1117842457389655
aF0.5668137637256798
aF0.7311754056624904
aF0.4800886965195015
aF0.4203500478203269
aF0.42494444038225354
aF0.30427502796102807
aF-0.34509206579388896
aF-0.28736674566609377
aF-0.1827156975463512
aF-0.8490662452511089
aF-0.38387338237600066
asg9
(lp1606
F-0.0007731151596634954
aF0.11889150448713176
aF0.022588841652031386
aF-0.11588135907427694
aF0.5530069618517868
aF0.3786371165844258
aF0.4245014701751635
aF0.8803338426641515
aF0.285265149883678
aF-0.32934346028250105
aF-0.07501982454065323
aF-0.08633437236164976
aF-0.7795572041577155
aF-0.4561113224870243
asg11
g1
(g12
g3
Ntp1607
Rp1608
(dp1609
g16
(F-0.0
F0.0
F-1.0
tp1610
sbsbag1
(g2
g3
Ntp1611
Rp1612
(dp1613
g7
(lp1614
F-0.22622443363400002
aF1.3769410398016553
aF-0.3837004562414341
aF0.45310605253730735
aF0.5789187961031604
aF0.45525292241606913
aF-0.07473221966695576
aF2.103221034537635
aF0.13794508500171276
aF-0.7204063184838885
aF-0.3724852475707633
aF-0.178352026158285
aF-0.9485696460304257
aF0.07707505263753509
asg9
(lp1615
F-0.0007731151596634955
aF0.7638029422365182
aF0.8044336776529237
aF0.07793231986831796
aF1.2291024468900615
aF0.8756282306641818
aF0.8697218692622104
aF1.107555670970822
aF0.6775196310549514
aF0.49399383943631636
aF0.14070525507761708
aF-0.09689447930116911
aF-0.7840970766759692
aF-1.0167293665123744
asg11
g1
(g12
g3
Ntp1616
Rp1617
(dp1618
g16
(F-0.0
F0.0
F-1.0
tp1619
sbsba.