(lp0
ccopy_reg
_reconstructor
p1
(cdeap.creator
OffenseTeam
p2
c__builtin__
object
p3
Ntp4
Rp5
(dp6
S'offense'
p7
(lp8
F-0.607659200516864
aF0.23509032193867713
aF0.7789081814165946
aF1.063366321282125
aF0.30518557896811516
aF0.8040013452062762
aF0.35184040882395573
aF0.3198102895782728
aF0.8715573930729023
aF-0.03869876537299872
aF-0.6267504636379169
aF-0.7460982394434572
aF-0.3164328687008873
aF-0.7664704986099974
asS'defense'
p9
(lp10
F-0.03191030111781813
aF0.5981422190725237
aF0.6319529703746791
aF0.12447737170225398
aF0.12127073239731662
aF0.837743531169662
aF0.720052245884556
aF0.5897930169984716
aF0.47622036377604815
aF-0.8558670028878393
aF-1.0884584856971242
aF-0.691067809903994
aF-0.6381727646330936
aF-0.7489840202792031
asS'fitness'
p11
g1
(cdeap.creator
AteFoodMax
p12
g3
Ntp13
Rp14
(dp15
S'wvalues'
p16
(F0.0
F11.0
F0.0
tp17
sbsbag1
(g2
g3
Ntp18
Rp19
(dp20
g7
(lp21
F-0.607659200516864
aF0.23509032193867713
aF0.6403143942988584
aF0.40332427632913026
aF0.30518557896811516
aF0.8040013452062762
aF0.4152956013897745
aF0.3198102895782728
aF0.8715573930729021
aF-0.03869876537299872
aF-0.6267504636379169
aF-0.7460982394434572
aF-0.3164328687008873
aF-0.7664704986099974
asg9
(lp22
F-0.03191030111781813
aF0.5981422190725237
aF0.7211243914531893
aF0.3326877456517253
aF0.7177753405126539
aF1.749047447129736
aF0.720052245884556
aF0.465106237819506
aF0.4762203637760481
aF-0.3971901007380699
aF-1.0884584856971242
aF-0.691067809903994
aF-0.9760242786796791
aF-0.7489840202792032
asg11
g1
(g12
g3
Ntp23
Rp24
(dp25
g16
(F0.0
F11.0
F0.0
tp26
sbsba.