(lp0
ccopy_reg
_reconstructor
p1
(cdeap.creator
ScoreTeam
p2
c__builtin__
object
p3
Ntp4
Rp5
(dp6
S'offense'
p7
(lp8
F0.3038792492704097
aF-0.18949158687182205
aF1.0948203513890469
aF1.0947858811853441
aF1.0482386727964088
aF-1.0734618939333394
aF0.3813131717704286
aF-0.02249216647254454
aF-0.4142721273010368
aF-2.4059469007232446
aF-0.30534687177815034
aF-1.8305174593301843
aF0.2447405210530815
aF-0.12638231989533222
asS'defense'
p9
(lp10
F-0.6048427878249619
aF2.2140813275732647
aF1.3544801787383252
aF1.2948407060562312
aF1.2601530043552196
aF1.3109654118158371
aF0.6346697587385547
aF0.7821973120514034
aF1.0200304200644148
aF-0.9972577651110826
aF0.579187600096122
aF0.39051120153414043
aF0.6000335299726702
aF0.07860440873068092
asS'fitness'
p11
g1
(cdeap.creator
ScoreMax
p12
g3
Ntp13
Rp14
(dp15
S'wvalues'
p16
(F5.0
F0.0
F0.0
tp17
sbsbag1
(g2
g3
Ntp18
Rp19
(dp20
g7
(lp21
F0.3038792492704097
aF-0.18949158687182205
aF1.0948203513890469
aF1.0947858811853441
aF1.0482386727964088
aF-1.0734618939333394
aF0.3813131717704286
aF-0.02249216647254454
aF-0.4142721273010368
aF-2.4059469007232446
aF-0.30534687177815034
aF-1.8305174593301843
aF0.2447405210530815
aF-0.12638231989533222
asg9
(lp22
F-0.6048427878249619
aF2.2140813275732647
aF1.3544801787383252
aF1.2948407060562312
aF1.2601530043552196
aF1.3109654118158371
aF0.6346697587385547
aF0.7821973120514034
aF1.0200304200644148
aF-0.9972577651110826
aF0.579187600096122
aF0.39051120153414043
aF0.6000335299726702
aF0.07860440873068092
asg11
g1
(g12
g3
Ntp23
Rp24
(dp25
g16
g17
sbsbag1
(g2
g3
Ntp26
Rp27
(dp28
g7
(lp29
F0.3038792492704097
aF-0.18949158687182205
aF1.0948203513890469
aF1.0947858811853441
aF1.0482386727964088
aF-1.0734618939333394
aF0.3813131717704286
aF-0.02249216647254454
aF-0.4142721273010368
aF-2.4059469007232446
aF-0.30534687177815034
aF-1.8305174593301843
aF0.2447405210530815
aF-0.12638231989533222
asg9
(lp30
F-0.6048427878249619
aF2.2140813275732647
aF1.3544801787383252
aF1.2948407060562312
aF1.2601530043552196
aF1.3109654118158371
aF0.6346697587385547
aF0.7821973120514034
aF1.0200304200644148
aF-0.9972577651110826
aF0.579187600096122
aF0.39051120153414043
aF0.6000335299726702
aF0.07860440873068092
asg11
g1
(g12
g3
Ntp31
Rp32
(dp33
g16
(F5.0
F0.0
F0.0
tp34
sbsbag1
(g2
g3
Ntp35
Rp36
(dp37
g7
(lp38
F0.3038792492704097
aF-0.18949158687182205
aF1.0948203513890469
aF1.0947858811853441
aF1.0482386727964088
aF-1.0734618939333394
aF0.3813131717704286
aF-0.02249216647254454
aF-0.4142721273010368
aF-2.4059469007232446
aF-0.30534687177815034
aF-1.8305174593301843
aF0.2447405210530815
aF-0.12638231989533222
asg9
(lp39
F-0.6048427878249619
aF2.2140813275732647
aF1.3544801787383252
aF1.2948407060562312
aF1.2601530043552196
aF1.3109654118158371
aF0.6346697587385547
aF0.7821973120514034
aF1.0200304200644148
aF-0.9972577651110826
aF0.579187600096122
aF0.39051120153414043
aF0.6000335299726702
aF0.07860440873068092
asg11
g1
(g12
g3
Ntp40
Rp41
(dp42
g16
g34
sbsbag1
(g2
g3
Ntp43
Rp44
(dp45
g7
(lp46
F-1.1118295204737931
aF0.322417484453485
aF-1.240044672486787
aF0.24052624322278954
aF-1.8217275115592693
aF1.3635773161356664
aF0.3579522818782489
aF-0.47154268607891797
aF-0.33026326375752135
aF-0.6836005133590068
aF-0.31741425913810917
aF1.6812110489576628
aF-0.8909833236699676
aF-0.2100627964585815
asg9
(lp47
F-0.6099980726122478
aF0.8406369426509435
aF0.20472252606020208
aF0.31973900132015387
aF0.12090648703512095
aF0.45587837584779356
aF0.6281635920245866
aF0.48603662449688034
aF1.3870889230414578
aF0.4047497254650272
aF-0.23416145718256876
aF-0.8499642554430256
aF0.15972147797212877
aF-0.15968234843997736
asg11
g1
(g12
g3
Ntp48
Rp49
(dp50
g16
(F5.0
F0.0
F0.0
tp51
sbsbag1
(g2
g3
Ntp52
Rp53
(dp54
g7
(lp55
F-1.1118295204737931
aF0.322417484453485
aF-1.240044672486787
aF0.24052624322278954
aF-1.8217275115592693
aF1.3635773161356664
aF0.3579522818782489
aF-0.47154268607891797
aF-0.33026326375752135
aF-0.6836005133590068
aF-0.31741425913810917
aF1.6812110489576628
aF-0.8909833236699676
aF-0.2100627964585815
asg9
(lp56
F-0.6099980726122478
aF0.8406369426509435
aF0.20472252606020208
aF0.31973900132015387
aF0.12090648703512095
aF0.45587837584779356
aF0.6281635920245866
aF0.48603662449688034
aF1.3870889230414578
aF0.4047497254650272
aF-0.23416145718256876
aF-0.8499642554430256
aF0.15972147797212877
aF-0.15968234843997736
asg11
g1
(g12
g3
Ntp57
Rp58
(dp59
g16
(F5.0
F0.0
F0.0
tp60
sbsbag1
(g2
g3
Ntp61
Rp62
(dp63
g7
(lp64
F-1.1118295204737931
aF0.322417484453485
aF-1.240044672486787
aF0.24052624322278954
aF-1.8217275115592693
aF1.3635773161356664
aF0.3579522818782489
aF-0.47154268607891797
aF-0.33026326375752135
aF-0.6836005133590068
aF-0.31741425913810917
aF1.6812110489576628
aF-0.8909833236699676
aF-0.2100627964585815
asg9
(lp65
F-0.6099980726122478
aF0.8406369426509435
aF0.20472252606020208
aF0.31973900132015387
aF0.12090648703512095
aF0.45587837584779356
aF0.6281635920245866
aF0.48603662449688034
aF1.3870889230414578
aF0.4047497254650272
aF-0.23416145718256876
aF-0.8499642554430256
aF0.15972147797212877
aF-0.15968234843997736
asg11
g1
(g12
g3
Ntp66
Rp67
(dp68
g16
g60
sbsbag1
(g2
g3
Ntp69
Rp70
(dp71
g7
(lp72
F-1.1118295204737931
aF0.322417484453485
aF-1.240044672486787
aF0.24052624322278954
aF-1.8217275115592693
aF1.3635773161356664
aF0.3579522818782489
aF-0.47154268607891797
aF-0.33026326375752135
aF-0.6836005133590068
aF-0.31741425913810917
aF1.6812110489576628
aF-0.8909833236699676
aF-0.2100627964585815
asg9
(lp73
F-0.6099980726122478
aF0.8406369426509435
aF0.20472252606020208
aF0.31973900132015387
aF0.12090648703512095
aF0.45587837584779356
aF0.6281635920245866
aF0.48603662449688034
aF1.3870889230414578
aF0.4047497254650272
aF-0.23416145718256876
aF-0.8499642554430256
aF0.15972147797212877
aF-0.15968234843997736
asg11
g1
(g12
g3
Ntp74
Rp75
(dp76
g16
(F5.0
F0.0
F0.0
tp77
sbsbag1
(g2
g3
Ntp78
Rp79
(dp80
g7
(lp81
F-1.1118295204737931
aF0.322417484453485
aF-1.240044672486787
aF0.24052624322278954
aF-1.8217275115592693
aF1.3635773161356664
aF0.3579522818782489
aF-0.47154268607891797
aF-0.33026326375752135
aF-0.6836005133590068
aF-0.31741425913810917
aF1.6812110489576628
aF-0.8909833236699676
aF-0.2100627964585815
asg9
(lp82
F-0.6099980726122478
aF0.8406369426509435
aF0.20472252606020208
aF0.31973900132015387
aF0.12090648703512095
aF0.45587837584779356
aF0.6281635920245866
aF0.48603662449688034
aF1.3870889230414578
aF0.4047497254650272
aF-0.23416145718256876
aF-0.8499642554430256
aF0.15972147797212877
aF-0.15968234843997736
asg11
g1
(g12
g3
Ntp83
Rp84
(dp85
g16
g77
sbsbag1
(g2
g3
Ntp86
Rp87
(dp88
g7
(lp89
F-1.1118295204737931
aF0.322417484453485
aF-1.240044672486787
aF0.24052624322278954
aF-1.8217275115592693
aF1.3635773161356664
aF0.3579522818782489
aF-0.47154268607891797
aF-0.33026326375752135
aF-0.6836005133590068
aF-0.31741425913810917
aF1.6812110489576628
aF-0.8909833236699676
aF-0.2100627964585815
asg9
(lp90
F-0.6099980726122478
aF0.8406369426509435
aF0.20472252606020208
aF0.31973900132015387
aF0.12090648703512095
aF0.45587837584779356
aF0.6281635920245866
aF0.48603662449688034
aF1.3870889230414578
aF0.4047497254650272
aF-0.23416145718256876
aF-0.8499642554430256
aF0.15972147797212877
aF-0.15968234843997736
asg11
g1
(g12
g3
Ntp91
Rp92
(dp93
g16
(F5.0
F0.0
F0.0
tp94
sbsbag1
(g2
g3
Ntp95
Rp96
(dp97
g7
(lp98
F-1.1118295204737931
aF0.322417484453485
aF-1.240044672486787
aF0.24052624322278954
aF-1.8217275115592693
aF1.3635773161356664
aF0.3579522818782489
aF-0.47154268607891797
aF-0.33026326375752135
aF-0.6836005133590068
aF-0.31741425913810917
aF1.6812110489576628
aF-0.8909833236699676
aF-0.2100627964585815
asg9
(lp99
F-0.6099980726122478
aF0.8406369426509435
aF0.20472252606020208
aF0.31973900132015387
aF0.12090648703512095
aF0.45587837584779356
aF0.6281635920245866
aF0.48603662449688034
aF1.3870889230414578
aF0.4047497254650272
aF-0.23416145718256876
aF-0.8499642554430256
aF0.15972147797212877
aF-0.15968234843997736
asg11
g1
(g12
g3
Ntp100
Rp101
(dp102
g16
g94
sbsbag1
(g2
g3
Ntp103
Rp104
(dp105
g7
(lp106
F-1.1118295204737931
aF0.322417484453485
aF-1.240044672486787
aF0.24052624322278954
aF-1.8217275115592693
aF1.3635773161356664
aF0.3579522818782489
aF-0.47154268607891797
aF-0.33026326375752135
aF-0.6836005133590068
aF-0.31741425913810917
aF1.6812110489576628
aF-0.8909833236699676
aF-0.2100627964585815
asg9
(lp107
F-0.6099980726122478
aF0.8406369426509435
aF0.20472252606020208
aF0.31973900132015387
aF0.12090648703512095
aF0.45587837584779356
aF0.6281635920245866
aF0.48603662449688034
aF1.3870889230414578
aF0.4047497254650272
aF-0.23416145718256876
aF-0.8499642554430256
aF0.15972147797212877
aF-0.15968234843997736
asg11
g1
(g12
g3
Ntp108
Rp109
(dp110
g16
(F5.0
F0.0
F0.0
tp111
sbsbag1
(g2
g3
Ntp112
Rp113
(dp114
g7
(lp115
F-1.1118295204737931
aF0.322417484453485
aF-1.240044672486787
aF0.24052624322278954
aF-1.8217275115592693
aF1.3635773161356664
aF0.3579522818782489
aF-0.47154268607891797
aF-0.33026326375752135
aF-0.6836005133590068
aF-0.31741425913810917
aF1.6812110489576628
aF-0.8909833236699676
aF-0.2100627964585815
asg9
(lp116
F-0.6099980726122478
aF0.8406369426509435
aF0.20472252606020208
aF0.31973900132015387
aF0.12090648703512095
aF0.45587837584779356
aF0.6281635920245866
aF0.48603662449688034
aF1.3870889230414578
aF0.4047497254650272
aF-0.23416145718256876
aF-0.8499642554430256
aF0.15972147797212877
aF-0.15968234843997736
asg11
g1
(g12
g3
Ntp117
Rp118
(dp119
g16
g111
sbsbag1
(g2
g3
Ntp120
Rp121
(dp122
g7
(lp123
F-1.1118295204737931
aF0.322417484453485
aF-1.240044672486787
aF0.24052624322278954
aF-1.8217275115592693
aF1.3635773161356664
aF0.3579522818782489
aF-0.47154268607891797
aF-0.33026326375752135
aF-0.6836005133590068
aF-0.31741425913810917
aF1.6812110489576628
aF-0.8909833236699676
aF-0.2100627964585815
asg9
(lp124
F-0.6099980726122478
aF0.8406369426509435
aF0.20472252606020208
aF0.31973900132015387
aF0.12090648703512095
aF0.45587837584779356
aF0.6281635920245866
aF0.48603662449688034
aF1.3870889230414578
aF0.4047497254650272
aF-0.23416145718256876
aF-0.8499642554430256
aF0.15972147797212877
aF-0.15968234843997736
asg11
g1
(g12
g3
Ntp125
Rp126
(dp127
g16
(F5.0
F0.0
F0.0
tp128
sbsbag1
(g2
g3
Ntp129
Rp130
(dp131
g7
(lp132
F-1.1118295204737931
aF0.322417484453485
aF-1.240044672486787
aF0.24052624322278954
aF-1.8217275115592693
aF1.3635773161356664
aF0.3579522818782489
aF-0.47154268607891797
aF-0.33026326375752135
aF-0.6836005133590068
aF-0.31741425913810917
aF1.6812110489576628
aF-0.8909833236699676
aF-0.2100627964585815
asg9
(lp133
F-0.6099980726122478
aF0.8406369426509435
aF0.20472252606020208
aF0.31973900132015387
aF0.12090648703512095
aF0.45587837584779356
aF0.6281635920245866
aF0.48603662449688034
aF1.3870889230414578
aF0.4047497254650272
aF-0.23416145718256876
aF-0.8499642554430256
aF0.15972147797212877
aF-0.15968234843997736
asg11
g1
(g12
g3
Ntp134
Rp135
(dp136
g16
g128
sbsbag1
(g2
g3
Ntp137
Rp138
(dp139
g7
(lp140
F-1.1118295204737931
aF0.322417484453485
aF-1.240044672486787
aF0.24052624322278954
aF-1.8217275115592693
aF1.3635773161356664
aF0.3579522818782489
aF-0.47154268607891797
aF-0.33026326375752135
aF-0.6836005133590068
aF-0.31741425913810917
aF1.6812110489576628
aF-0.8909833236699676
aF-0.2100627964585815
asg9
(lp141
F-0.6099980726122478
aF0.8406369426509435
aF0.20472252606020208
aF0.31973900132015387
aF0.12090648703512095
aF0.45587837584779356
aF0.6281635920245866
aF0.48603662449688034
aF1.3870889230414578
aF0.4047497254650272
aF-0.23416145718256876
aF-0.8499642554430256
aF0.15972147797212877
aF-0.15968234843997736
asg11
g1
(g12
g3
Ntp142
Rp143
(dp144
g16
(F5.0
F0.0
F0.0
tp145
sbsbag1
(g2
g3
Ntp146
Rp147
(dp148
g7
(lp149
F-1.1118295204737931
aF0.322417484453485
aF-1.240044672486787
aF0.24052624322278954
aF-1.8217275115592693
aF1.3635773161356664
aF0.3579522818782489
aF-0.47154268607891797
aF-0.33026326375752135
aF-0.6836005133590068
aF-0.31741425913810917
aF1.6812110489576628
aF-0.8909833236699676
aF-0.2100627964585815
asg9
(lp150
F-0.6099980726122478
aF0.8406369426509435
aF0.20472252606020208
aF0.31973900132015387
aF0.12090648703512095
aF0.45587837584779356
aF0.6281635920245866
aF0.48603662449688034
aF1.3870889230414578
aF0.4047497254650272
aF-0.23416145718256876
aF-0.8499642554430256
aF0.15972147797212877
aF-0.15968234843997736
asg11
g1
(g12
g3
Ntp151
Rp152
(dp153
g16
g145
sbsbag1
(g2
g3
Ntp154
Rp155
(dp156
g7
(lp157
F-1.1118295204737931
aF0.322417484453485
aF-1.240044672486787
aF0.24052624322278954
aF-1.8217275115592693
aF1.3635773161356664
aF0.3579522818782489
aF-0.47154268607891797
aF-0.33026326375752135
aF-0.6836005133590068
aF-0.31741425913810917
aF1.6812110489576628
aF-0.8909833236699676
aF-0.2100627964585815
asg9
(lp158
F-0.6099980726122478
aF0.8406369426509435
aF0.20472252606020208
aF0.31973900132015387
aF0.12090648703512095
aF0.45587837584779356
aF0.6281635920245866
aF0.48603662449688034
aF1.3870889230414578
aF0.4047497254650272
aF-0.23416145718256876
aF-0.8499642554430256
aF0.15972147797212877
aF-0.15968234843997736
asg11
g1
(g12
g3
Ntp159
Rp160
(dp161
g16
(F5.0
F0.0
F0.0
tp162
sbsbag1
(g2
g3
Ntp163
Rp164
(dp165
g7
(lp166
F-1.1118295204737931
aF0.322417484453485
aF-1.240044672486787
aF0.24052624322278954
aF-1.8217275115592693
aF1.3635773161356664
aF0.3579522818782489
aF-0.47154268607891797
aF-0.33026326375752135
aF-0.6836005133590068
aF-0.31741425913810917
aF1.6812110489576628
aF-0.8909833236699676
aF-0.2100627964585815
asg9
(lp167
F-0.6099980726122478
aF0.8406369426509435
aF0.20472252606020208
aF0.31973900132015387
aF0.12090648703512095
aF0.45587837584779356
aF0.6281635920245866
aF0.48603662449688034
aF1.3870889230414578
aF0.4047497254650272
aF-0.23416145718256876
aF-0.8499642554430256
aF0.15972147797212877
aF-0.15968234843997736
asg11
g1
(g12
g3
Ntp168
Rp169
(dp170
g16
g162
sbsbag1
(g2
g3
Ntp171
Rp172
(dp173
g7
(lp174
F-1.1118295204737931
aF0.322417484453485
aF-1.240044672486787
aF0.24052624322278954
aF-1.8217275115592693
aF1.3635773161356664
aF0.3579522818782489
aF-0.47154268607891797
aF-0.33026326375752135
aF-0.6836005133590068
aF-0.31741425913810917
aF1.6812110489576628
aF-0.8909833236699676
aF-0.2100627964585815
asg9
(lp175
F-0.6099980726122478
aF0.8406369426509435
aF0.20472252606020208
aF0.31973900132015387
aF0.12090648703512095
aF0.45587837584779356
aF0.6281635920245866
aF0.48603662449688034
aF1.3870889230414578
aF0.4047497254650272
aF-0.23416145718256876
aF-0.8499642554430256
aF0.15972147797212877
aF-0.15968234843997736
asg11
g1
(g12
g3
Ntp176
Rp177
(dp178
g16
(F5.0
F0.0
F0.0
tp179
sbsbag1
(g2
g3
Ntp180
Rp181
(dp182
g7
(lp183
F-1.1118295204737931
aF0.322417484453485
aF-1.240044672486787
aF0.24052624322278954
aF-1.8217275115592693
aF1.3635773161356664
aF0.3579522818782489
aF-0.47154268607891797
aF-0.33026326375752135
aF-0.6836005133590068
aF-0.31741425913810917
aF1.6812110489576628
aF-0.8909833236699676
aF-0.2100627964585815
asg9
(lp184
F-0.6099980726122478
aF0.8406369426509435
aF0.20472252606020208
aF0.31973900132015387
aF0.12090648703512095
aF0.45587837584779356
aF0.6281635920245866
aF0.48603662449688034
aF1.3870889230414578
aF0.4047497254650272
aF-0.23416145718256876
aF-0.8499642554430256
aF0.15972147797212877
aF-0.15968234843997736
asg11
g1
(g12
g3
Ntp185
Rp186
(dp187
g16
g179
sbsbag1
(g2
g3
Ntp188
Rp189
(dp190
g7
(lp191
F-1.1118295204737931
aF0.322417484453485
aF-1.240044672486787
aF0.24052624322278954
aF-1.8217275115592693
aF1.3635773161356664
aF0.3579522818782489
aF-0.47154268607891797
aF-0.33026326375752135
aF-0.6836005133590068
aF-0.31741425913810917
aF1.6812110489576628
aF-0.8909833236699676
aF-0.2100627964585815
asg9
(lp192
F-0.6099980726122478
aF0.8406369426509435
aF0.20472252606020208
aF0.31973900132015387
aF0.12090648703512095
aF0.45587837584779356
aF0.6281635920245866
aF0.48603662449688034
aF1.3870889230414578
aF0.4047497254650272
aF-0.23416145718256876
aF-0.8499642554430256
aF0.15972147797212877
aF-0.15968234843997736
asg11
g1
(g12
g3
Ntp193
Rp194
(dp195
g16
(F5.0
F0.0
F0.0
tp196
sbsbag1
(g2
g3
Ntp197
Rp198
(dp199
g7
(lp200
F-1.1118295204737931
aF0.322417484453485
aF-1.240044672486787
aF0.24052624322278954
aF-1.8217275115592693
aF1.3635773161356664
aF0.3579522818782489
aF-0.47154268607891797
aF-0.33026326375752135
aF-0.6836005133590068
aF-0.31741425913810917
aF1.6812110489576628
aF-0.8909833236699676
aF-0.2100627964585815
asg9
(lp201
F-0.6099980726122478
aF0.8406369426509435
aF0.20472252606020208
aF0.31973900132015387
aF0.12090648703512095
aF0.45587837584779356
aF0.6281635920245866
aF0.48603662449688034
aF1.3870889230414578
aF0.4047497254650272
aF-0.23416145718256876
aF-0.8499642554430256
aF0.15972147797212877
aF-0.15968234843997736
asg11
g1
(g12
g3
Ntp202
Rp203
(dp204
g16
g196
sbsbag1
(g2
g3
Ntp205
Rp206
(dp207
g7
(lp208
F-1.1118295204737931
aF0.322417484453485
aF-1.240044672486787
aF0.24052624322278954
aF-1.8217275115592693
aF1.3635773161356664
aF0.3579522818782489
aF-0.47154268607891797
aF-0.33026326375752135
aF-0.6836005133590068
aF-0.31741425913810917
aF1.6812110489576628
aF-0.8909833236699676
aF-0.2100627964585815
asg9
(lp209
F-0.6099980726122478
aF0.8406369426509435
aF0.20472252606020208
aF0.31973900132015387
aF0.12090648703512095
aF0.45587837584779356
aF0.6281635920245866
aF0.48603662449688034
aF1.3870889230414578
aF0.4047497254650272
aF-0.23416145718256876
aF-0.8499642554430256
aF0.15972147797212877
aF-0.15968234843997736
asg11
g1
(g12
g3
Ntp210
Rp211
(dp212
g16
(F5.0
F0.0
F0.0
tp213
sbsbag1
(g2
g3
Ntp214
Rp215
(dp216
g7
(lp217
F-1.1118295204737931
aF0.322417484453485
aF-1.240044672486787
aF0.24052624322278954
aF-1.8217275115592693
aF1.3635773161356664
aF0.3579522818782489
aF-0.47154268607891797
aF-0.33026326375752135
aF-0.6836005133590068
aF-0.31741425913810917
aF1.6812110489576628
aF-0.8909833236699676
aF-0.2100627964585815
asg9
(lp218
F-0.6099980726122478
aF0.8406369426509435
aF0.20472252606020208
aF0.31973900132015387
aF0.12090648703512095
aF0.45587837584779356
aF0.6281635920245866
aF0.48603662449688034
aF1.3870889230414578
aF0.4047497254650272
aF-0.23416145718256876
aF-0.8499642554430256
aF0.15972147797212877
aF-0.15968234843997736
asg11
g1
(g12
g3
Ntp219
Rp220
(dp221
g16
g213
sbsbag1
(g2
g3
Ntp222
Rp223
(dp224
g7
(lp225
F-1.1118295204737931
aF0.322417484453485
aF-1.240044672486787
aF0.24052624322278954
aF-1.8217275115592693
aF1.3635773161356664
aF0.3579522818782489
aF-0.47154268607891797
aF-0.33026326375752135
aF-0.6836005133590068
aF-0.31741425913810917
aF1.6812110489576628
aF-0.8909833236699676
aF-0.2100627964585815
asg9
(lp226
F-0.6099980726122478
aF0.8406369426509435
aF0.20472252606020208
aF0.31973900132015387
aF0.12090648703512095
aF0.45587837584779356
aF0.6281635920245866
aF0.48603662449688034
aF1.3870889230414578
aF0.4047497254650272
aF-0.23416145718256876
aF-0.8499642554430256
aF0.15972147797212877
aF-0.15968234843997736
asg11
g1
(g12
g3
Ntp227
Rp228
(dp229
g16
(F5.0
F0.0
F0.0
tp230
sbsbag1
(g2
g3
Ntp231
Rp232
(dp233
g7
(lp234
F-1.1118295204737931
aF0.322417484453485
aF-1.240044672486787
aF0.24052624322278954
aF-1.8217275115592693
aF1.3635773161356664
aF0.3579522818782489
aF-0.47154268607891797
aF-0.33026326375752135
aF-0.6836005133590068
aF-0.31741425913810917
aF1.6812110489576628
aF-0.8909833236699676
aF-0.2100627964585815
asg9
(lp235
F-0.6099980726122478
aF0.8406369426509435
aF0.20472252606020208
aF0.31973900132015387
aF0.12090648703512095
aF0.45587837584779356
aF0.6281635920245866
aF0.48603662449688034
aF1.3870889230414578
aF0.4047497254650272
aF-0.23416145718256876
aF-0.8499642554430256
aF0.15972147797212877
aF-0.15968234843997736
asg11
g1
(g12
g3
Ntp236
Rp237
(dp238
g16
g230
sbsba.