(lp0
ccopy_reg
_reconstructor
p1
(cdeap.creator
ScoreTeam
p2
c__builtin__
object
p3
Ntp4
Rp5
(dp6
S'offense'
p7
(lp8
F-0.7863765344311809
aF0.27244312608163856
aF0.05436432819903314
aF0.6487867410724759
aF0.8251741122486451
aF0.4887506508144319
aF0.6530290347646445
aF0.4841760267255846
aF0.8771075133478331
aF-0.9676149576238791
aF-0.39152546177624536
aF-0.5798917641538605
aF-0.4042798077791362
aF-0.8545350992635455
asS'defense'
p9
(lp10
F-0.40186104297416503
aF0.7036006200503225
aF0.09125208127967444
aF0.2626649057066416
aF0.9152673561787847
aF0.08805549569491522
aF0.7114615716029032
aF0.9136878660302948
aF0.7115374299510094
aF-0.02945547332059162
aF-0.9635877242844366
aF-0.900719418244687
aF-0.983626206221331
aF-0.9918514820236833
asS'fitness'
p11
g1
(cdeap.creator
ScoreMax
p12
g3
Ntp13
Rp14
(dp15
S'wvalues'
p16
(F-1.0
F0.0
F0.0
tp17
sbsbag1
(g2
g3
Ntp18
Rp19
(dp20
g7
(lp21
F-0.3409193469621522
aF0.8515325753482816
aF0.5501390266282831
aF0.9254194950582313
aF0.287713524021851
aF0.8790792537068776
aF0.6881096681276226
aF0.9343249678809458
aF0.8080721717544809
aF-0.1398444181420131
aF-0.46238489166398766
aF-0.32062613218725644
aF-0.6754329961877824
aF-0.8205247559689295
asg9
(lp22
F-0.8265603383063511
aF0.7430967744407845
aF0.7924755804694452
aF0.5841009514367478
aF0.2329733036239331
aF0.10078204553198189
aF0.515013571557541
aF0.25194512414293424
aF0.2272396486365289
aF-0.4898273196609656
aF-0.757348907564353
aF-0.5938114053151975
aF-0.3047997999613813
aF-0.17938050983058873
asg11
g1
(g12
g3
Ntp23
Rp24
(dp25
g16
(F-1.0
F0.0
F0.0
tp26
sbsbag1
(g2
g3
Ntp27
Rp28
(dp29
g7
(lp30
F-0.7015232007971091
aF0.8546912396484947
aF-0.020632337477244578
aF0.868381872364757
aF-0.7316506399732878
aF-0.4014482634991243
aF-0.1866478427260414
aF-0.0005210416546259644
aF0.8308365173084531
aF-0.4774727257682809
aF-0.991493273366866
aF-0.07532310813598153
aF-0.6701635161813262
aF0.297687960173304
asg9
(lp31
F-0.09237566353282722
aF0.6054768047911046
aF-0.7224842873882831
aF-0.6989856836482891
aF0.8690152119619285
aF0.14820164144499604
aF-0.648282465288404
aF-0.1038742576477596
aF-0.31185978231382006
aF0.7167902664793455
aF0.49066703958328906
aF-0.6493446685512954
aF-0.5454118639152712
aF-0.44572490644201723
asg11
g1
(g12
g3
Ntp32
Rp33
(dp34
g16
(F-1.0
F0.0
F0.0
tp35
sbsbag1
(g2
g3
Ntp36
Rp37
(dp38
g7
(lp39
F-0.7863765344311809
aF0.27244312608163856
aF0.05436432819903314
aF0.6487867410724759
aF0.8251741122486451
aF0.4887506508144319
aF0.6530290347646445
aF0.4841760267255846
aF0.8771075133478331
aF-0.9676149576238791
aF-0.39152546177624536
aF-0.5798917641538605
aF-0.4042798077791362
aF-0.8545350992635455
asg9
(lp40
F-0.40186104297416503
aF0.7036006200503225
aF0.09125208127967444
aF0.2626649057066416
aF0.9152673561787847
aF0.08805549569491522
aF0.7114615716029032
aF0.9136878660302948
aF0.7115374299510094
aF-0.02945547332059162
aF-0.9635877242844366
aF-0.900719418244687
aF-0.983626206221331
aF-0.9918514820236833
asg11
g1
(g12
g3
Ntp41
Rp42
(dp43
g16
g17
sbsbag1
(g2
g3
Ntp44
Rp45
(dp46
g7
(lp47
F-0.3409193469621522
aF0.8515325753482816
aF0.5501390266282831
aF0.9254194950582313
aF0.287713524021851
aF0.8790792537068776
aF0.6881096681276226
aF0.9343249678809458
aF0.8080721717544809
aF-0.1398444181420131
aF-0.46238489166398766
aF-0.32062613218725644
aF-0.6754329961877824
aF-0.8205247559689295
asg9
(lp48
F-0.8265603383063511
aF0.7430967744407845
aF0.7924755804694452
aF0.5841009514367478
aF0.2329733036239331
aF0.10078204553198189
aF0.515013571557541
aF0.25194512414293424
aF0.2272396486365289
aF-0.4898273196609656
aF-0.757348907564353
aF-0.5938114053151975
aF-0.3047997999613813
aF-0.17938050983058873
asg11
g1
(g12
g3
Ntp49
Rp50
(dp51
g16
g26
sbsbag1
(g2
g3
Ntp52
Rp53
(dp54
g7
(lp55
F-0.7141728087133604
aF0.16876310118798798
aF0.012581928599930858
aF0.7255329353206699
aF-0.3056276381299781
aF-0.243369720961704
aF-0.45670022889520784
aF0.37800775977479806
aF0.8917408559148113
aF-0.6442846233059386
aF-0.9239403129116246
aF-0.4859040287869681
aF-0.41753221660252865
aF-0.8666681055419819
asg9
(lp56
F-0.08096325403447074
aF0.4336157179655478
aF-0.643235669444556
aF0.06188575183081882
aF0.854096657197565
aF0.15358518393499124
aF-1.0508226272119918
aF0.6573252673579283
aF0.48480556119712015
aF0.245643420636465
aF0.11494631059892169
aF-0.7219568528943539
aF-0.910832785618708
aF-0.3194048087687106
asg11
g1
(g12
g3
Ntp57
Rp58
(dp59
g16
(F-1.0
F0.0
F0.0
tp60
sbsbag1
(g2
g3
Ntp61
Rp62
(dp63
g7
(lp64
F-0.3409193469621522
aF0.8515325753482816
aF0.5501390266282831
aF0.9254194950582313
aF0.287713524021851
aF0.8790792537068776
aF0.6881096681276226
aF0.9343249678809458
aF0.8080721717544809
aF-0.1398444181420131
aF-0.46238489166398766
aF-0.32062613218725644
aF-0.6754329961877824
aF-0.8205247559689295
asg9
(lp65
F-0.8265603383063511
aF0.7430967744407845
aF0.7924755804694452
aF0.5841009514367478
aF0.2329733036239331
aF0.10078204553198189
aF0.515013571557541
aF0.25194512414293424
aF0.2272396486365289
aF-0.4898273196609656
aF-0.757348907564353
aF-0.5938114053151975
aF-0.3047997999613813
aF-0.17938050983058873
asg11
g1
(g12
g3
Ntp66
Rp67
(dp68
g16
g26
sbsbag1
(g2
g3
Ntp69
Rp70
(dp71
g7
(lp72
F-0.6265669141328746
aF0.21490265986001975
aF-0.8909394615073838
aF0.6601907876118679
aF-1.0014667820015077
aF0.8729446577403466
aF0.5722743606304841
aF1.1934105499701033
aF0.8170908535751803
aF-0.25805497144098816
aF-0.5600189815734207
aF-0.4231874118812994
aF-0.4531653150215961
aF-0.06882246230248815
asg9
(lp73
F-0.5829173052896568
aF0.07909909661605652
aF0.14725052443572062
aF0.00924815426159692
aF0.9154447483820956
aF0.10297865948491285
aF0.7401610361581575
aF0.22098514735775565
aF-0.6789359952877515
aF1.6465788701014414
aF-0.6437387360774317
aF-0.5260810411667074
aF-0.5651864644741432
aF-0.11458489302866658
asg11
g1
(g12
g3
Ntp74
Rp75
(dp76
g16
(F-1.0
F0.0
F0.0
tp77
sbsbag1
(g2
g3
Ntp78
Rp79
(dp80
g7
(lp81
F-0.46451403387764706
aF0.8789051001545358
aF1.0251058488695861
aF1.3830459218200115
aF0.6896311061775884
aF0.5419715370152036
aF0.9680116391671181
aF0.13952177449864395
aF0.8078455343351418
aF0.7771951860179966
aF-0.6789529510719572
aF-0.439237528016152
aF-0.7067414055007208
aF-1.5697226576171912
asg9
(lp82
F-0.44434384484970796
aF0.5729446191468677
aF0.753741852618397
aF0.3935254981143457
aF0.5103462445462956
aF-0.06919976587759688
aF0.045271158957279956
aF0.5742837836645933
aF0.9272395142073485
aF-1.0167770539512526
aF-0.32195537400675456
aF-0.6014417364397959
aF-0.2908939372343991
aF-0.6399286101847242
asg11
g1
(g12
g3
Ntp83
Rp84
(dp85
g16
(F-1.0
F0.0
F0.0
tp86
sbsbag1
(g2
g3
Ntp87
Rp88
(dp89
g7
(lp90
F-0.508837187962498
aF0.04139766602651218
aF-0.03093129350121627
aF0.5977511072596059
aF0.011933777823090665
aF0.8831952048905817
aF2.0608533523488104
aF0.7487329981735413
aF0.6612061567043124
aF-1.4294205491137553
aF-0.25301573950049255
aF-0.8366025799316701
aF-0.4402964531058865
aF-0.746952950128551
asg9
(lp91
F-0.4426964544797251
aF0.3028611690606272
aF1.433328374117782
aF0.7508245068557294
aF2.345949206735592
aF0.0948050774862857
aF0.663340891818406
aF1.0438078619761924
aF0.17403595009359848
aF-0.5797235026172105
aF-0.8457256592106694
aF-0.5094527283755107
aF-0.2112036376295452
aF0.12407875548748655
asg11
g1
(g12
g3
Ntp92
Rp93
(dp94
g16
(F-1.0
F0.0
F0.0
tp95
sbsbag1
(g2
g3
Ntp96
Rp97
(dp98
g7
(lp99
F-2.0777215899849257
aF1.7266059959293805
aF0.6804188645972042
aF1.2016575397228935
aF0.5915402117158153
aF-1.467463656856007
aF0.735846711512253
aF0.35870626894107205
aF-0.720998021327903
aF0.6422874744326503
aF-1.7578599072320211
aF-1.144837593164725
aF-1.7032290803761514
aF-0.743525492535752
asg9
(lp100
F-0.200856811606696
aF2.5793698292871214
aF-1.1809746662696747
aF0.2714911525556461
aF1.3850663145770008
aF-0.8228877600486973
aF-0.20865432934792338
aF0.04894234286934887
aF1.3926675848959098
aF0.5273825289941623
aF1.0753220325621502
aF0.647883062187697
aF-1.1932562094954613
aF-0.554686821218605
asg11
g1
(g12
g3
Ntp101
Rp102
(dp103
g16
(F-1.0
F0.0
F0.0
tp104
sbsbag1
(g2
g3
Ntp105
Rp106
(dp107
g7
(lp108
F-0.7737269265149296
aF0.9583712645421452
aF0.5112214679513588
aF0.791635678116563
aF0.7220622625120775
aF0.5773838601894414
aF0.923081420933811
aF0.10564722529616057
aF0.8162031747414751
aF-1.2943796600575985
aF-0.6657176038442204
aF-0.1693108435028739
aF-0.6569111073579338
aF0.24296187572548175
asg9
(lp109
F0.1770906236388527
aF1.31178262450386
aF-0.540945433485462
aF-0.49820652977246627
aF0.9301859109431483
aF0.05909498150179588
aF1.1140017335264911
aF-0.12551422412256805
aF0.33588149023301617
aF0.4416913725222889
aF0.02357134805665695
aF-0.8281072339016287
aF-0.8757849242388152
aF-1.11817157969699
asg11
g1
(g12
g3
Ntp110
Rp111
(dp112
g16
(F-10.0
F0.0
F0.0
tp113
sbsbag1
(g2
g3
Ntp114
Rp115
(dp116
g7
(lp117
F-0.5034692549358017
aF0.8546912396484947
aF-0.020632337477244578
aF0.868381872364757
aF-0.7316506399732878
aF-0.4014482634991243
aF-0.1866478427260414
aF-0.0005210416546259644
aF0.8308365173084531
aF-0.4774727257682809
aF-0.991493273366866
aF0.0012629692873561138
aF-0.7821178157324568
aF0.297687960173304
asg9
(lp118
F-0.09237566353282722
aF1.2085040400152014
aF-0.7224842873882831
aF-0.620089792919207
aF0.4185556158326267
aF0.14820164144499604
aF-0.648282465288404
aF-0.1038742576477596
aF-0.88735610855443
aF0.7167902664793455
aF0.9042826128311988
aF-0.6493446685512954
aF-0.23138074691614718
aF0.12545310585916414
asg11
g1
(g12
g3
Ntp119
Rp120
(dp121
g16
(F-10.0
F0.0
F0.0
tp122
sbsbag1
(g2
g3
Ntp123
Rp124
(dp125
g7
(lp126
F-0.061507468634751095
aF0.23818346879738014
aF0.26860769320724837
aF0.6195194875153087
aF0.1568399295634435
aF0.5115587368673137
aF0.7602936637353643
aF1.2964360805078496
aF0.7224094158478765
aF-1.5339939404147191
aF-0.363355669638825
aF-0.9429529318600491
aF-0.6151651367595103
aF-1.2824251520847363
asg9
(lp127
F-0.5325161142121089
aF-0.9682904838842707
aF-0.7414344501376504
aF0.5724877655818179
aF0.5936661006494273
aF0.09127741242673554
aF0.6491427418101015
aF0.6045964161579719
aF0.46001042514355467
aF-0.1312888572895119
aF-0.9885469878080955
aF-1.9346097981944865
aF-0.3637365254945091
aF0.1603679548729799
asg11
g1
(g12
g3
Ntp128
Rp129
(dp130
g16
(F-10.0
F0.0
F0.0
tp131
sbsbag1
(g2
g3
Ntp132
Rp133
(dp134
g7
(lp135
F-0.7807995725920728
aF1.311544446101278
aF0.03280530766387225
aF0.704594925678679
aF-1.4406373613843864
aF-0.18783206556177284
aF-0.25723824488330926
aF0.37618408550559135
aF0.8190166040987216
aF-1.5425185105622776
aF-1.9127313619880455
aF-0.8670552274229526
aF0.24843723637012383
aF-1.05993359728952
asg9
(lp136
F-0.39612301960885526
aF1.5183088745980846
aF-1.0950020609378548
aF0.3438475395745254
aF0.8982485872800924
aF0.08626445317839682
aF-0.7782520744760874
aF1.7467992918600883
aF1.0092024638771502
aF-0.2910876077084452
aF0.9582398344612044
aF-0.5968410929399055
aF-0.4454393065607166
aF-0.6711069689562597
asg11
g1
(g12
g3
Ntp137
Rp138
(dp139
g16
(F-10.0
F0.0
F0.0
tp140
sbsbag1
(g2
g3
Ntp141
Rp142
(dp143
g7
(lp144
F0.016808452095579463
aF-0.15395480316671412
aF0.4259238986996503
aF-0.020706835696154294
aF1.3277192199894194
aF-0.6939477863891046
aF-2.9425734012322735e-05
aF-0.8352879935941322
aF-1.6328679832668258
aF-0.578336233360174
aF-0.26009842244527936
aF-1.1549761461366885
aF-0.4797636813463094
aF0.815956822452814
asg9
(lp145
F-1.267591823046334
aF-1.042657774812153
aF0.8425614546344198
aF0.6981265883623484
aF1.018771615610044
aF0.1982992172102389
aF0.1541965115235382
aF-0.18447402616346353
aF-0.5642252295177359
aF0.7587999099188072
aF0.7621681232989679
aF-1.4877669043759445
aF-0.5068383506756109
aF-0.8768918244381714
asg11
g1
(g12
g3
Ntp146
Rp147
(dp148
g16
(F-13.0
F0.0
F0.0
tp149
sbsbag1
(g2
g3
Ntp150
Rp151
(dp152
g7
(lp153
F0.15275499459248587
aF-0.022313307481401146
aF1.433518730298699
aF0.694979042140089
aF0.8782143719570009
aF0.7754537319566751
aF0.3172565520017848
aF1.2334956165889526
aF-1.202154364197882
aF0.1639090746143136
aF0.02016728617565386
aF-0.8956521967670297
aF0.4398257580131719
aF-0.6427449175029074
asg9
(lp154
F-1.79879493642542
aF-0.7079176133701132
aF0.5946358277087792
aF0.6401880141098295
aF0.7598725305621287
aF0.013499699725922687
aF0.354161629971752
aF0.6931969477620323
aF-0.8095076140286401
aF-0.16881187746934603
aF-1.0103674250710406
aF0.003330369385789289
aF-0.7073060935957847
aF-1.2491448207571585
asg11
g1
(g12
g3
Ntp155
Rp156
(dp157
g16
(F-13.0
F0.0
F0.0
tp158
sbsbag1
(g2
g3
Ntp159
Rp160
(dp161
g7
(lp162
F0.016808452095579463
aF-0.15395480316671412
aF0.4259238986996503
aF-0.020706835696154294
aF1.3277192199894194
aF-0.6939477863891046
aF-2.9425734012322735e-05
aF-0.8352879935941322
aF-1.6328679832668258
aF-0.578336233360174
aF-0.26009842244527936
aF-1.1549761461366885
aF-0.4797636813463094
aF0.815956822452814
asg9
(lp163
F-1.267591823046334
aF-1.042657774812153
aF0.8425614546344198
aF0.6981265883623484
aF1.018771615610044
aF0.1982992172102389
aF0.1541965115235382
aF-0.18447402616346353
aF-0.5642252295177359
aF0.7587999099188072
aF0.7621681232989679
aF-1.4877669043759445
aF-0.5068383506756109
aF-0.8768918244381714
asg11
g1
(g12
g3
Ntp164
Rp165
(dp166
g16
g149
sbsbag1
(g2
g3
Ntp167
Rp168
(dp169
g7
(lp170
F0.6630652180891178
aF0.2636258872961036
aF0.8957372240241228
aF0.7584218759294117
aF0.16922050426283952
aF-0.5802511655026383
aF0.20697685193558454
aF1.0418959893783266
aF0.06628464908608023
aF-0.4651222886921737
aF-0.08679479997384562
aF0.14058536872775243
aF-1.0048144450123708
aF-0.6832551081177625
asg9
(lp171
F-0.6443980865716964
aF0.3731020210007923
aF-0.0836688057844896
aF-0.43851355706266937
aF0.6264822456462267
aF-0.03150932964018591
aF-0.9164371121835988
aF0.3013936323038134
aF1.0901061057350263
aF-0.00667972921408533
aF-0.35606247002695063
aF-0.10157117132703603
aF-1.0341453037149193
aF-0.16133986559744562
asg11
g1
(g12
g3
Ntp172
Rp173
(dp174
g16
(F-14.0
F0.0
F0.0
tp175
sbsbag1
(g2
g3
Ntp176
Rp177
(dp178
g7
(lp179
F-0.7987246088882357
aF0.9963799421726414
aF0.8395067670627462
aF0.960676434749585
aF0.42605082203770117
aF0.42158689136272653
aF0.316366772677935
aF0.7093439818979836
aF0.7375111120904793
aF-0.43860398818895696
aF-0.31163545625915323
aF-0.7666219136758949
aF-1.6623528008498316
aF-0.39635697832933037
asg9
(lp180
F-0.987642161806035
aF0.9210676882775564
aF0.3466616053226373
aF0.9216948590337171
aF0.6499477398308422
aF0.17774594742740668
aF0.8856184700276477
aF0.8859048285283058
aF0.40779957939905664
aF0.48999637398031165
aF-0.2289712415616078
aF-0.29653665509401594
aF-0.8188855087752681
aF-0.6433627022562705
asg11
g1
(g12
g3
Ntp181
Rp182
(dp183
g16
(F-15.0
F0.0
F0.0
tp184
sbsba.